SF:/Users/mr.wolf/loadingalias/crc-fast-rust/src/algorithm.rs
FN:57,_RINvNtCs3YYFpeUFfny_8crc_fast9algorithm6updateNtNtNtNtB4_4arch7aarch643aes13Aarch64AesOpsNtNtB4_7structs7Width32EB4_
FN:57,_RINvNtCs3YYFpeUFfny_8crc_fast9algorithm6updateNtNtNtNtB4_4arch7aarch643aes13Aarch64AesOpsNtNtB4_7structs7Width64EB4_
FN:57,_RINvNtCs3YYFpeUFfny_8crc_fast9algorithm6updateNtNtNtNtB4_4arch7aarch648aes_sha317Aarch64AesSha3OpsNtNtB4_7structs7Width32EB4_
FN:57,_RINvNtCs3YYFpeUFfny_8crc_fast9algorithm6updateNtNtNtNtB4_4arch7aarch648aes_sha317Aarch64AesSha3OpsNtNtB4_7structs7Width64EB4_
FN:27,_RNvNtCs3YYFpeUFfny_8crc_fast9algorithm18extract_keys_array
FN:355,_RINvNtCs3YYFpeUFfny_8crc_fast9algorithm12fold_and_xorNtNtNtNtB4_4arch7aarch643aes13Aarch64AesOpsNtNtB4_7structs7Width32EB4_
FN:355,_RINvNtCs3YYFpeUFfny_8crc_fast9algorithm12fold_and_xorNtNtNtNtB4_4arch7aarch643aes13Aarch64AesOpsNtNtB4_7structs7Width64EB4_
FN:355,_RINvNtCs3YYFpeUFfny_8crc_fast9algorithm12fold_and_xorNtNtNtNtB4_4arch7aarch648aes_sha317Aarch64AesSha3OpsNtNtB4_7structs7Width32EB4_
FN:355,_RINvNtCs3YYFpeUFfny_8crc_fast9algorithm12fold_and_xorNtNtNtNtB4_4arch7aarch648aes_sha317Aarch64AesSha3OpsNtNtB4_7structs7Width64EB4_
FN:334,_RINvNtCs3YYFpeUFfny_8crc_fast9algorithm13reflect_bytesNtNtNtNtB4_4arch7aarch643aes13Aarch64AesOpsEB4_
FN:334,_RINvNtCs3YYFpeUFfny_8crc_fast9algorithm13reflect_bytesNtNtNtNtB4_4arch7aarch648aes_sha317Aarch64AesSha3OpsEB4_
FN:385,_RINvNtCs3YYFpeUFfny_8crc_fast9algorithm16process_17_to_31NtNtNtNtB4_4arch7aarch643aes13Aarch64AesOpsNtNtB4_7structs7Width32EB4_
FN:385,_RINvNtCs3YYFpeUFfny_8crc_fast9algorithm16process_17_to_31NtNtNtNtB4_4arch7aarch643aes13Aarch64AesOpsNtNtB4_7structs7Width64EB4_
FN:385,_RINvNtCs3YYFpeUFfny_8crc_fast9algorithm16process_17_to_31NtNtNtNtB4_4arch7aarch648aes_sha317Aarch64AesSha3OpsNtNtB4_7structs7Width32EB4_
FN:385,_RINvNtCs3YYFpeUFfny_8crc_fast9algorithm16process_17_to_31NtNtNtNtB4_4arch7aarch648aes_sha317Aarch64AesSha3OpsNtNtB4_7structs7Width64EB4_
FN:512,_RINvNtCs3YYFpeUFfny_8crc_fast9algorithm17get_last_two_xmmsNtNtNtNtB4_4arch7aarch643aes13Aarch64AesOpsNtNtB4_7structs7Width32EB4_
FN:512,_RINvNtCs3YYFpeUFfny_8crc_fast9algorithm17get_last_two_xmmsNtNtNtNtB4_4arch7aarch643aes13Aarch64AesOpsNtNtB4_7structs7Width64EB4_
FN:512,_RINvNtCs3YYFpeUFfny_8crc_fast9algorithm17get_last_two_xmmsNtNtNtNtB4_4arch7aarch648aes_sha317Aarch64AesSha3OpsNtNtB4_7structs7Width32EB4_
FN:512,_RINvNtCs3YYFpeUFfny_8crc_fast9algorithm17get_last_two_xmmsNtNtNtNtB4_4arch7aarch648aes_sha317Aarch64AesSha3OpsNtNtB4_7structs7Width64EB4_
FN:427,_RINvNtCs3YYFpeUFfny_8crc_fast9algorithm17process_32_to_255NtNtNtNtB4_4arch7aarch643aes13Aarch64AesOpsNtNtB4_7structs7Width32EB4_
FN:427,_RINvNtCs3YYFpeUFfny_8crc_fast9algorithm17process_32_to_255NtNtNtNtB4_4arch7aarch643aes13Aarch64AesOpsNtNtB4_7structs7Width64EB4_
FN:427,_RINvNtCs3YYFpeUFfny_8crc_fast9algorithm17process_32_to_255NtNtNtNtB4_4arch7aarch648aes_sha317Aarch64AesSha3OpsNtNtB4_7structs7Width32EB4_
FN:427,_RINvNtCs3YYFpeUFfny_8crc_fast9algorithm17process_32_to_255NtNtNtNtB4_4arch7aarch648aes_sha317Aarch64AesSha3OpsNtNtB4_7structs7Width64EB4_
FN:285,_RINvNtCs3YYFpeUFfny_8crc_fast9algorithm18process_exactly_16NtNtNtNtB4_4arch7aarch643aes13Aarch64AesOpsNtNtB4_7structs7Width32EB4_
FN:285,_RINvNtCs3YYFpeUFfny_8crc_fast9algorithm18process_exactly_16NtNtNtNtB4_4arch7aarch643aes13Aarch64AesOpsNtNtB4_7structs7Width64EB4_
FN:285,_RINvNtCs3YYFpeUFfny_8crc_fast9algorithm18process_exactly_16NtNtNtNtB4_4arch7aarch648aes_sha317Aarch64AesSha3OpsNtNtB4_7structs7Width32EB4_
FN:285,_RINvNtCs3YYFpeUFfny_8crc_fast9algorithm18process_exactly_16NtNtNtNtB4_4arch7aarch648aes_sha317Aarch64AesSha3OpsNtNtB4_7structs7Width64EB4_
FN:116,_RINvNtCs3YYFpeUFfny_8crc_fast9algorithm19process_by_strategyNtNtNtNtB4_4arch7aarch643aes13Aarch64AesOpsNtNtB4_7structs7Width32EB4_
FN:116,_RINvNtCs3YYFpeUFfny_8crc_fast9algorithm19process_by_strategyNtNtNtNtB4_4arch7aarch643aes13Aarch64AesOpsNtNtB4_7structs7Width64EB4_
FN:116,_RINvNtCs3YYFpeUFfny_8crc_fast9algorithm19process_by_strategyNtNtNtNtB4_4arch7aarch648aes_sha317Aarch64AesSha3OpsNtNtB4_7structs7Width32EB4_
FN:116,_RINvNtCs3YYFpeUFfny_8crc_fast9algorithm19process_by_strategyNtNtNtNtB4_4arch7aarch648aes_sha317Aarch64AesSha3OpsNtNtB4_7structs7Width64EB4_
FN:205,_RINvNtCs3YYFpeUFfny_8crc_fast9algorithm19process_simd_chunksNtNtNtNtB4_4arch7aarch643aes13Aarch64AesOpsNtNtB4_7structs7Width32EB4_
FN:205,_RINvNtCs3YYFpeUFfny_8crc_fast9algorithm19process_simd_chunksNtNtNtNtB4_4arch7aarch643aes13Aarch64AesOpsNtNtB4_7structs7Width64EB4_
FN:205,_RINvNtCs3YYFpeUFfny_8crc_fast9algorithm19process_simd_chunksNtNtNtNtB4_4arch7aarch648aes_sha317Aarch64AesSha3OpsNtNtB4_7structs7Width32EB4_
FN:205,_RINvNtCs3YYFpeUFfny_8crc_fast9algorithm19process_simd_chunksNtNtNtNtB4_4arch7aarch648aes_sha317Aarch64AesSha3OpsNtNtB4_7structs7Width64EB4_
FN:311,_RINvNtCs3YYFpeUFfny_8crc_fast9algorithm21process_16_byte_blockNtNtNtNtB4_4arch7aarch643aes13Aarch64AesOpsEB4_
FN:311,_RINvNtCs3YYFpeUFfny_8crc_fast9algorithm21process_16_byte_blockNtNtNtNtB4_4arch7aarch648aes_sha317Aarch64AesSha3OpsEB4_
FN:152,_RINvNtCs3YYFpeUFfny_8crc_fast9algorithm21process_large_alignedNtNtNtNtB4_4arch7aarch643aes13Aarch64AesOpsNtNtB4_7structs7Width32EB4_
FN:152,_RINvNtCs3YYFpeUFfny_8crc_fast9algorithm21process_large_alignedNtNtNtNtB4_4arch7aarch643aes13Aarch64AesOpsNtNtB4_7structs7Width64EB4_
FN:152,_RINvNtCs3YYFpeUFfny_8crc_fast9algorithm21process_large_alignedNtNtNtNtB4_4arch7aarch648aes_sha317Aarch64AesSha3OpsNtNtB4_7structs7Width32EB4_
FN:152,_RINvNtCs3YYFpeUFfny_8crc_fast9algorithm21process_large_alignedNtNtNtNtB4_4arch7aarch648aes_sha317Aarch64AesSha3OpsNtNtB4_7structs7Width64EB4_
FN:57,_RINvNtCs3YYFpeUFfny_8crc_fast9algorithm6updateNtNtNtNtB4_4arch7aarch643aes13Aarch64AesOpsNtNtB4_7structs7Width32ECsa96wfuC4ae_8checksum
FN:57,_RINvNtCs3YYFpeUFfny_8crc_fast9algorithm6updateNtNtNtNtB4_4arch7aarch643aes13Aarch64AesOpsNtNtB4_7structs7Width64ECsa96wfuC4ae_8checksum
FN:57,_RINvNtCs3YYFpeUFfny_8crc_fast9algorithm6updateNtNtNtNtB4_4arch7aarch648aes_sha317Aarch64AesSha3OpsNtNtB4_7structs7Width32ECsa96wfuC4ae_8checksum
FN:57,_RINvNtCs3YYFpeUFfny_8crc_fast9algorithm6updateNtNtNtNtB4_4arch7aarch648aes_sha317Aarch64AesSha3OpsNtNtB4_7structs7Width64ECsa96wfuC4ae_8checksum
FN:57,_RINvNtCs3YYFpeUFfny_8crc_fast9algorithm6updateNtNtNtNtB4_4arch7aarch643aes13Aarch64AesOpsNtNtB4_7structs7Width32ECseaXugnuoQ7h_8checksum
FN:57,_RINvNtCs3YYFpeUFfny_8crc_fast9algorithm6updateNtNtNtNtB4_4arch7aarch643aes13Aarch64AesOpsNtNtB4_7structs7Width64ECseaXugnuoQ7h_8checksum
FN:57,_RINvNtCs3YYFpeUFfny_8crc_fast9algorithm6updateNtNtNtNtB4_4arch7aarch648aes_sha317Aarch64AesSha3OpsNtNtB4_7structs7Width32ECseaXugnuoQ7h_8checksum
FN:57,_RINvNtCs3YYFpeUFfny_8crc_fast9algorithm6updateNtNtNtNtB4_4arch7aarch648aes_sha317Aarch64AesSha3OpsNtNtB4_7structs7Width64ECseaXugnuoQ7h_8checksum
FN:355,_RINvNtCscwG700SpbJM_8crc_fast9algorithm12fold_and_xorNtNtNtNtB4_4arch7aarch643aes13Aarch64AesOpsNtNtB4_7structs7Width32EB4_
FN:355,_RINvNtCscwG700SpbJM_8crc_fast9algorithm12fold_and_xorNtNtNtNtB4_4arch7aarch643aes13Aarch64AesOpsNtNtB4_7structs7Width64EB4_
FN:355,_RINvNtCscwG700SpbJM_8crc_fast9algorithm12fold_and_xorNtNtNtNtB4_4arch7aarch648aes_sha317Aarch64AesSha3OpsNtNtB4_7structs7Width32EB4_
FN:355,_RINvNtCscwG700SpbJM_8crc_fast9algorithm12fold_and_xorNtNtNtNtB4_4arch7aarch648aes_sha317Aarch64AesSha3OpsNtNtB4_7structs7Width64EB4_
FN:334,_RINvNtCscwG700SpbJM_8crc_fast9algorithm13reflect_bytesNtNtNtNtB4_4arch7aarch643aes13Aarch64AesOpsEB4_
FN:334,_RINvNtCscwG700SpbJM_8crc_fast9algorithm13reflect_bytesNtNtNtNtB4_4arch7aarch648aes_sha317Aarch64AesSha3OpsEB4_
FN:385,_RINvNtCscwG700SpbJM_8crc_fast9algorithm16process_17_to_31NtNtNtNtB4_4arch7aarch643aes13Aarch64AesOpsNtNtB4_7structs7Width32EB4_
FN:385,_RINvNtCscwG700SpbJM_8crc_fast9algorithm16process_17_to_31NtNtNtNtB4_4arch7aarch643aes13Aarch64AesOpsNtNtB4_7structs7Width64EB4_
FN:385,_RINvNtCscwG700SpbJM_8crc_fast9algorithm16process_17_to_31NtNtNtNtB4_4arch7aarch648aes_sha317Aarch64AesSha3OpsNtNtB4_7structs7Width32EB4_
FN:385,_RINvNtCscwG700SpbJM_8crc_fast9algorithm16process_17_to_31NtNtNtNtB4_4arch7aarch648aes_sha317Aarch64AesSha3OpsNtNtB4_7structs7Width64EB4_
FN:512,_RINvNtCscwG700SpbJM_8crc_fast9algorithm17get_last_two_xmmsNtNtNtNtB4_4arch7aarch643aes13Aarch64AesOpsNtNtB4_7structs7Width32EB4_
FN:512,_RINvNtCscwG700SpbJM_8crc_fast9algorithm17get_last_two_xmmsNtNtNtNtB4_4arch7aarch643aes13Aarch64AesOpsNtNtB4_7structs7Width64EB4_
FN:512,_RINvNtCscwG700SpbJM_8crc_fast9algorithm17get_last_two_xmmsNtNtNtNtB4_4arch7aarch648aes_sha317Aarch64AesSha3OpsNtNtB4_7structs7Width32EB4_
FN:512,_RINvNtCscwG700SpbJM_8crc_fast9algorithm17get_last_two_xmmsNtNtNtNtB4_4arch7aarch648aes_sha317Aarch64AesSha3OpsNtNtB4_7structs7Width64EB4_
FN:427,_RINvNtCscwG700SpbJM_8crc_fast9algorithm17process_32_to_255NtNtNtNtB4_4arch7aarch643aes13Aarch64AesOpsNtNtB4_7structs7Width32EB4_
FN:427,_RINvNtCscwG700SpbJM_8crc_fast9algorithm17process_32_to_255NtNtNtNtB4_4arch7aarch643aes13Aarch64AesOpsNtNtB4_7structs7Width64EB4_
FN:427,_RINvNtCscwG700SpbJM_8crc_fast9algorithm17process_32_to_255NtNtNtNtB4_4arch7aarch648aes_sha317Aarch64AesSha3OpsNtNtB4_7structs7Width32EB4_
FN:427,_RINvNtCscwG700SpbJM_8crc_fast9algorithm17process_32_to_255NtNtNtNtB4_4arch7aarch648aes_sha317Aarch64AesSha3OpsNtNtB4_7structs7Width64EB4_
FN:285,_RINvNtCscwG700SpbJM_8crc_fast9algorithm18process_exactly_16NtNtNtNtB4_4arch7aarch643aes13Aarch64AesOpsNtNtB4_7structs7Width32EB4_
FN:285,_RINvNtCscwG700SpbJM_8crc_fast9algorithm18process_exactly_16NtNtNtNtB4_4arch7aarch643aes13Aarch64AesOpsNtNtB4_7structs7Width64EB4_
FN:285,_RINvNtCscwG700SpbJM_8crc_fast9algorithm18process_exactly_16NtNtNtNtB4_4arch7aarch648aes_sha317Aarch64AesSha3OpsNtNtB4_7structs7Width32EB4_
FN:285,_RINvNtCscwG700SpbJM_8crc_fast9algorithm18process_exactly_16NtNtNtNtB4_4arch7aarch648aes_sha317Aarch64AesSha3OpsNtNtB4_7structs7Width64EB4_
FN:116,_RINvNtCscwG700SpbJM_8crc_fast9algorithm19process_by_strategyNtNtNtNtB4_4arch7aarch643aes13Aarch64AesOpsNtNtB4_7structs7Width32EB4_
FN:116,_RINvNtCscwG700SpbJM_8crc_fast9algorithm19process_by_strategyNtNtNtNtB4_4arch7aarch643aes13Aarch64AesOpsNtNtB4_7structs7Width64EB4_
FN:116,_RINvNtCscwG700SpbJM_8crc_fast9algorithm19process_by_strategyNtNtNtNtB4_4arch7aarch648aes_sha317Aarch64AesSha3OpsNtNtB4_7structs7Width32EB4_
FN:116,_RINvNtCscwG700SpbJM_8crc_fast9algorithm19process_by_strategyNtNtNtNtB4_4arch7aarch648aes_sha317Aarch64AesSha3OpsNtNtB4_7structs7Width64EB4_
FN:205,_RINvNtCscwG700SpbJM_8crc_fast9algorithm19process_simd_chunksNtNtNtNtB4_4arch7aarch643aes13Aarch64AesOpsNtNtB4_7structs7Width32EB4_
FN:205,_RINvNtCscwG700SpbJM_8crc_fast9algorithm19process_simd_chunksNtNtNtNtB4_4arch7aarch643aes13Aarch64AesOpsNtNtB4_7structs7Width64EB4_
FN:205,_RINvNtCscwG700SpbJM_8crc_fast9algorithm19process_simd_chunksNtNtNtNtB4_4arch7aarch648aes_sha317Aarch64AesSha3OpsNtNtB4_7structs7Width32EB4_
FN:205,_RINvNtCscwG700SpbJM_8crc_fast9algorithm19process_simd_chunksNtNtNtNtB4_4arch7aarch648aes_sha317Aarch64AesSha3OpsNtNtB4_7structs7Width64EB4_
FN:311,_RINvNtCscwG700SpbJM_8crc_fast9algorithm21process_16_byte_blockNtNtNtNtB4_4arch7aarch643aes13Aarch64AesOpsEB4_
FN:311,_RINvNtCscwG700SpbJM_8crc_fast9algorithm21process_16_byte_blockNtNtNtNtB4_4arch7aarch648aes_sha317Aarch64AesSha3OpsEB4_
FN:152,_RINvNtCscwG700SpbJM_8crc_fast9algorithm21process_large_alignedNtNtNtNtB4_4arch7aarch643aes13Aarch64AesOpsNtNtB4_7structs7Width32EB4_
FN:152,_RINvNtCscwG700SpbJM_8crc_fast9algorithm21process_large_alignedNtNtNtNtB4_4arch7aarch643aes13Aarch64AesOpsNtNtB4_7structs7Width64EB4_
FN:152,_RINvNtCscwG700SpbJM_8crc_fast9algorithm21process_large_alignedNtNtNtNtB4_4arch7aarch648aes_sha317Aarch64AesSha3OpsNtNtB4_7structs7Width32EB4_
FN:152,_RINvNtCscwG700SpbJM_8crc_fast9algorithm21process_large_alignedNtNtNtNtB4_4arch7aarch648aes_sha317Aarch64AesSha3OpsNtNtB4_7structs7Width64EB4_
FN:57,_RINvNtCscwG700SpbJM_8crc_fast9algorithm6updateNtNtNtNtB4_4arch7aarch643aes13Aarch64AesOpsNtNtB4_7structs7Width32EB4_
FN:57,_RINvNtCscwG700SpbJM_8crc_fast9algorithm6updateNtNtNtNtB4_4arch7aarch643aes13Aarch64AesOpsNtNtB4_7structs7Width64EB4_
FN:57,_RINvNtCscwG700SpbJM_8crc_fast9algorithm6updateNtNtNtNtB4_4arch7aarch648aes_sha317Aarch64AesSha3OpsNtNtB4_7structs7Width32EB4_
FN:57,_RINvNtCscwG700SpbJM_8crc_fast9algorithm6updateNtNtNtNtB4_4arch7aarch648aes_sha317Aarch64AesSha3OpsNtNtB4_7structs7Width64EB4_
FN:27,_RNvNtCscwG700SpbJM_8crc_fast9algorithm18extract_keys_array
FN:57,_RINvNtCs3YYFpeUFfny_8crc_fast9algorithm6updateNtNtNtNtB4_4arch7aarch643aes13Aarch64AesOpsNtNtB4_7structs7Width32ECs4dsW9QDrSvF_12no_std_tests
FN:57,_RINvNtCs3YYFpeUFfny_8crc_fast9algorithm6updateNtNtNtNtB4_4arch7aarch643aes13Aarch64AesOpsNtNtB4_7structs7Width64ECs4dsW9QDrSvF_12no_std_tests
FN:57,_RINvNtCs3YYFpeUFfny_8crc_fast9algorithm6updateNtNtNtNtB4_4arch7aarch648aes_sha317Aarch64AesSha3OpsNtNtB4_7structs7Width32ECs4dsW9QDrSvF_12no_std_tests
FN:57,_RINvNtCs3YYFpeUFfny_8crc_fast9algorithm6updateNtNtNtNtB4_4arch7aarch648aes_sha317Aarch64AesSha3OpsNtNtB4_7structs7Width64ECs4dsW9QDrSvF_12no_std_tests
FN:57,_RINvNtCs3YYFpeUFfny_8crc_fast9algorithm6updateNtNtNtNtB4_4arch7aarch643aes13Aarch64AesOpsNtNtB4_7structs7Width32ECsiyVaUKbNjcY_10wasm_tests
FN:57,_RINvNtCs3YYFpeUFfny_8crc_fast9algorithm6updateNtNtNtNtB4_4arch7aarch643aes13Aarch64AesOpsNtNtB4_7structs7Width64ECsiyVaUKbNjcY_10wasm_tests
FN:57,_RINvNtCs3YYFpeUFfny_8crc_fast9algorithm6updateNtNtNtNtB4_4arch7aarch648aes_sha317Aarch64AesSha3OpsNtNtB4_7structs7Width32ECsiyVaUKbNjcY_10wasm_tests
FN:57,_RINvNtCs3YYFpeUFfny_8crc_fast9algorithm6updateNtNtNtNtB4_4arch7aarch648aes_sha317Aarch64AesSha3OpsNtNtB4_7structs7Width64ECsiyVaUKbNjcY_10wasm_tests
FNDA:0,_RINvNtCs3YYFpeUFfny_8crc_fast9algorithm6updateNtNtNtNtB4_4arch7aarch643aes13Aarch64AesOpsNtNtB4_7structs7Width32EB4_
FNDA:0,_RINvNtCs3YYFpeUFfny_8crc_fast9algorithm6updateNtNtNtNtB4_4arch7aarch643aes13Aarch64AesOpsNtNtB4_7structs7Width64EB4_
FNDA:0,_RINvNtCs3YYFpeUFfny_8crc_fast9algorithm6updateNtNtNtNtB4_4arch7aarch648aes_sha317Aarch64AesSha3OpsNtNtB4_7structs7Width32EB4_
FNDA:0,_RINvNtCs3YYFpeUFfny_8crc_fast9algorithm6updateNtNtNtNtB4_4arch7aarch648aes_sha317Aarch64AesSha3OpsNtNtB4_7structs7Width64EB4_
FNDA:29,_RNvNtCs3YYFpeUFfny_8crc_fast9algorithm18extract_keys_array
FNDA:0,_RINvNtCs3YYFpeUFfny_8crc_fast9algorithm12fold_and_xorNtNtNtNtB4_4arch7aarch643aes13Aarch64AesOpsNtNtB4_7structs7Width32EB4_
FNDA:0,_RINvNtCs3YYFpeUFfny_8crc_fast9algorithm12fold_and_xorNtNtNtNtB4_4arch7aarch643aes13Aarch64AesOpsNtNtB4_7structs7Width64EB4_
FNDA:0,_RINvNtCs3YYFpeUFfny_8crc_fast9algorithm12fold_and_xorNtNtNtNtB4_4arch7aarch648aes_sha317Aarch64AesSha3OpsNtNtB4_7structs7Width32EB4_
FNDA:0,_RINvNtCs3YYFpeUFfny_8crc_fast9algorithm12fold_and_xorNtNtNtNtB4_4arch7aarch648aes_sha317Aarch64AesSha3OpsNtNtB4_7structs7Width64EB4_
FNDA:0,_RINvNtCs3YYFpeUFfny_8crc_fast9algorithm13reflect_bytesNtNtNtNtB4_4arch7aarch643aes13Aarch64AesOpsEB4_
FNDA:521,_RINvNtCs3YYFpeUFfny_8crc_fast9algorithm13reflect_bytesNtNtNtNtB4_4arch7aarch648aes_sha317Aarch64AesSha3OpsEB4_
FNDA:0,_RINvNtCs3YYFpeUFfny_8crc_fast9algorithm16process_17_to_31NtNtNtNtB4_4arch7aarch643aes13Aarch64AesOpsNtNtB4_7structs7Width32EB4_
FNDA:0,_RINvNtCs3YYFpeUFfny_8crc_fast9algorithm16process_17_to_31NtNtNtNtB4_4arch7aarch643aes13Aarch64AesOpsNtNtB4_7structs7Width64EB4_
FNDA:0,_RINvNtCs3YYFpeUFfny_8crc_fast9algorithm16process_17_to_31NtNtNtNtB4_4arch7aarch648aes_sha317Aarch64AesSha3OpsNtNtB4_7structs7Width32EB4_
FNDA:0,_RINvNtCs3YYFpeUFfny_8crc_fast9algorithm16process_17_to_31NtNtNtNtB4_4arch7aarch648aes_sha317Aarch64AesSha3OpsNtNtB4_7structs7Width64EB4_
FNDA:0,_RINvNtCs3YYFpeUFfny_8crc_fast9algorithm17get_last_two_xmmsNtNtNtNtB4_4arch7aarch643aes13Aarch64AesOpsNtNtB4_7structs7Width32EB4_
FNDA:0,_RINvNtCs3YYFpeUFfny_8crc_fast9algorithm17get_last_two_xmmsNtNtNtNtB4_4arch7aarch643aes13Aarch64AesOpsNtNtB4_7structs7Width64EB4_
FNDA:0,_RINvNtCs3YYFpeUFfny_8crc_fast9algorithm17get_last_two_xmmsNtNtNtNtB4_4arch7aarch648aes_sha317Aarch64AesSha3OpsNtNtB4_7structs7Width32EB4_
FNDA:0,_RINvNtCs3YYFpeUFfny_8crc_fast9algorithm17get_last_two_xmmsNtNtNtNtB4_4arch7aarch648aes_sha317Aarch64AesSha3OpsNtNtB4_7structs7Width64EB4_
FNDA:0,_RINvNtCs3YYFpeUFfny_8crc_fast9algorithm17process_32_to_255NtNtNtNtB4_4arch7aarch643aes13Aarch64AesOpsNtNtB4_7structs7Width32EB4_
FNDA:0,_RINvNtCs3YYFpeUFfny_8crc_fast9algorithm17process_32_to_255NtNtNtNtB4_4arch7aarch643aes13Aarch64AesOpsNtNtB4_7structs7Width64EB4_
FNDA:0,_RINvNtCs3YYFpeUFfny_8crc_fast9algorithm17process_32_to_255NtNtNtNtB4_4arch7aarch648aes_sha317Aarch64AesSha3OpsNtNtB4_7structs7Width32EB4_
FNDA:0,_RINvNtCs3YYFpeUFfny_8crc_fast9algorithm17process_32_to_255NtNtNtNtB4_4arch7aarch648aes_sha317Aarch64AesSha3OpsNtNtB4_7structs7Width64EB4_
FNDA:0,_RINvNtCs3YYFpeUFfny_8crc_fast9algorithm18process_exactly_16NtNtNtNtB4_4arch7aarch643aes13Aarch64AesOpsNtNtB4_7structs7Width32EB4_
FNDA:0,_RINvNtCs3YYFpeUFfny_8crc_fast9algorithm18process_exactly_16NtNtNtNtB4_4arch7aarch643aes13Aarch64AesOpsNtNtB4_7structs7Width64EB4_
FNDA:0,_RINvNtCs3YYFpeUFfny_8crc_fast9algorithm18process_exactly_16NtNtNtNtB4_4arch7aarch648aes_sha317Aarch64AesSha3OpsNtNtB4_7structs7Width32EB4_
FNDA:0,_RINvNtCs3YYFpeUFfny_8crc_fast9algorithm18process_exactly_16NtNtNtNtB4_4arch7aarch648aes_sha317Aarch64AesSha3OpsNtNtB4_7structs7Width64EB4_
FNDA:0,_RINvNtCs3YYFpeUFfny_8crc_fast9algorithm19process_by_strategyNtNtNtNtB4_4arch7aarch643aes13Aarch64AesOpsNtNtB4_7structs7Width32EB4_
FNDA:0,_RINvNtCs3YYFpeUFfny_8crc_fast9algorithm19process_by_strategyNtNtNtNtB4_4arch7aarch643aes13Aarch64AesOpsNtNtB4_7structs7Width64EB4_
FNDA:6,_RINvNtCs3YYFpeUFfny_8crc_fast9algorithm19process_by_strategyNtNtNtNtB4_4arch7aarch648aes_sha317Aarch64AesSha3OpsNtNtB4_7structs7Width32EB4_
FNDA:22,_RINvNtCs3YYFpeUFfny_8crc_fast9algorithm19process_by_strategyNtNtNtNtB4_4arch7aarch648aes_sha317Aarch64AesSha3OpsNtNtB4_7structs7Width64EB4_
FNDA:0,_RINvNtCs3YYFpeUFfny_8crc_fast9algorithm19process_simd_chunksNtNtNtNtB4_4arch7aarch643aes13Aarch64AesOpsNtNtB4_7structs7Width32EB4_
FNDA:0,_RINvNtCs3YYFpeUFfny_8crc_fast9algorithm19process_simd_chunksNtNtNtNtB4_4arch7aarch643aes13Aarch64AesOpsNtNtB4_7structs7Width64EB4_
FNDA:0,_RINvNtCs3YYFpeUFfny_8crc_fast9algorithm19process_simd_chunksNtNtNtNtB4_4arch7aarch648aes_sha317Aarch64AesSha3OpsNtNtB4_7structs7Width32EB4_
FNDA:1,_RINvNtCs3YYFpeUFfny_8crc_fast9algorithm19process_simd_chunksNtNtNtNtB4_4arch7aarch648aes_sha317Aarch64AesSha3OpsNtNtB4_7structs7Width64EB4_
FNDA:0,_RINvNtCs3YYFpeUFfny_8crc_fast9algorithm21process_16_byte_blockNtNtNtNtB4_4arch7aarch643aes13Aarch64AesOpsEB4_
FNDA:0,_RINvNtCs3YYFpeUFfny_8crc_fast9algorithm21process_16_byte_blockNtNtNtNtB4_4arch7aarch648aes_sha317Aarch64AesSha3OpsEB4_
FNDA:0,_RINvNtCs3YYFpeUFfny_8crc_fast9algorithm21process_large_alignedNtNtNtNtB4_4arch7aarch643aes13Aarch64AesOpsNtNtB4_7structs7Width32EB4_
FNDA:0,_RINvNtCs3YYFpeUFfny_8crc_fast9algorithm21process_large_alignedNtNtNtNtB4_4arch7aarch643aes13Aarch64AesOpsNtNtB4_7structs7Width64EB4_
FNDA:0,_RINvNtCs3YYFpeUFfny_8crc_fast9algorithm21process_large_alignedNtNtNtNtB4_4arch7aarch648aes_sha317Aarch64AesSha3OpsNtNtB4_7structs7Width32EB4_
FNDA:1,_RINvNtCs3YYFpeUFfny_8crc_fast9algorithm21process_large_alignedNtNtNtNtB4_4arch7aarch648aes_sha317Aarch64AesSha3OpsNtNtB4_7structs7Width64EB4_
FNDA:0,_RINvNtCs3YYFpeUFfny_8crc_fast9algorithm6updateNtNtNtNtB4_4arch7aarch643aes13Aarch64AesOpsNtNtB4_7structs7Width32ECsa96wfuC4ae_8checksum
FNDA:0,_RINvNtCs3YYFpeUFfny_8crc_fast9algorithm6updateNtNtNtNtB4_4arch7aarch643aes13Aarch64AesOpsNtNtB4_7structs7Width64ECsa96wfuC4ae_8checksum
FNDA:0,_RINvNtCs3YYFpeUFfny_8crc_fast9algorithm6updateNtNtNtNtB4_4arch7aarch648aes_sha317Aarch64AesSha3OpsNtNtB4_7structs7Width32ECsa96wfuC4ae_8checksum
FNDA:0,_RINvNtCs3YYFpeUFfny_8crc_fast9algorithm6updateNtNtNtNtB4_4arch7aarch648aes_sha317Aarch64AesSha3OpsNtNtB4_7structs7Width64ECsa96wfuC4ae_8checksum
FNDA:0,_RINvNtCs3YYFpeUFfny_8crc_fast9algorithm6updateNtNtNtNtB4_4arch7aarch643aes13Aarch64AesOpsNtNtB4_7structs7Width32ECseaXugnuoQ7h_8checksum
FNDA:0,_RINvNtCs3YYFpeUFfny_8crc_fast9algorithm6updateNtNtNtNtB4_4arch7aarch643aes13Aarch64AesOpsNtNtB4_7structs7Width64ECseaXugnuoQ7h_8checksum
FNDA:0,_RINvNtCs3YYFpeUFfny_8crc_fast9algorithm6updateNtNtNtNtB4_4arch7aarch648aes_sha317Aarch64AesSha3OpsNtNtB4_7structs7Width32ECseaXugnuoQ7h_8checksum
FNDA:0,_RINvNtCs3YYFpeUFfny_8crc_fast9algorithm6updateNtNtNtNtB4_4arch7aarch648aes_sha317Aarch64AesSha3OpsNtNtB4_7structs7Width64ECseaXugnuoQ7h_8checksum
FNDA:0,_RINvNtCscwG700SpbJM_8crc_fast9algorithm12fold_and_xorNtNtNtNtB4_4arch7aarch643aes13Aarch64AesOpsNtNtB4_7structs7Width32EB4_
FNDA:0,_RINvNtCscwG700SpbJM_8crc_fast9algorithm12fold_and_xorNtNtNtNtB4_4arch7aarch643aes13Aarch64AesOpsNtNtB4_7structs7Width64EB4_
FNDA:59280,_RINvNtCscwG700SpbJM_8crc_fast9algorithm12fold_and_xorNtNtNtNtB4_4arch7aarch648aes_sha317Aarch64AesSha3OpsNtNtB4_7structs7Width32EB4_
FNDA:37743,_RINvNtCscwG700SpbJM_8crc_fast9algorithm12fold_and_xorNtNtNtNtB4_4arch7aarch648aes_sha317Aarch64AesSha3OpsNtNtB4_7structs7Width64EB4_
FNDA:0,_RINvNtCscwG700SpbJM_8crc_fast9algorithm13reflect_bytesNtNtNtNtB4_4arch7aarch643aes13Aarch64AesOpsEB4_
FNDA:7141712,_RINvNtCscwG700SpbJM_8crc_fast9algorithm13reflect_bytesNtNtNtNtB4_4arch7aarch648aes_sha317Aarch64AesSha3OpsEB4_
FNDA:0,_RINvNtCscwG700SpbJM_8crc_fast9algorithm16process_17_to_31NtNtNtNtB4_4arch7aarch643aes13Aarch64AesOpsNtNtB4_7structs7Width32EB4_
FNDA:0,_RINvNtCscwG700SpbJM_8crc_fast9algorithm16process_17_to_31NtNtNtNtB4_4arch7aarch643aes13Aarch64AesOpsNtNtB4_7structs7Width64EB4_
FNDA:2640,_RINvNtCscwG700SpbJM_8crc_fast9algorithm16process_17_to_31NtNtNtNtB4_4arch7aarch648aes_sha317Aarch64AesSha3OpsNtNtB4_7structs7Width32EB4_
FNDA:1680,_RINvNtCscwG700SpbJM_8crc_fast9algorithm16process_17_to_31NtNtNtNtB4_4arch7aarch648aes_sha317Aarch64AesSha3OpsNtNtB4_7structs7Width64EB4_
FNDA:0,_RINvNtCscwG700SpbJM_8crc_fast9algorithm17get_last_two_xmmsNtNtNtNtB4_4arch7aarch643aes13Aarch64AesOpsNtNtB4_7structs7Width32EB4_
FNDA:0,_RINvNtCscwG700SpbJM_8crc_fast9algorithm17get_last_two_xmmsNtNtNtNtB4_4arch7aarch643aes13Aarch64AesOpsNtNtB4_7structs7Width64EB4_
FNDA:18504,_RINvNtCscwG700SpbJM_8crc_fast9algorithm17get_last_two_xmmsNtNtNtNtB4_4arch7aarch648aes_sha317Aarch64AesSha3OpsNtNtB4_7structs7Width32EB4_
FNDA:11778,_RINvNtCscwG700SpbJM_8crc_fast9algorithm17get_last_two_xmmsNtNtNtNtB4_4arch7aarch648aes_sha317Aarch64AesSha3OpsNtNtB4_7structs7Width64EB4_
FNDA:0,_RINvNtCscwG700SpbJM_8crc_fast9algorithm17process_32_to_255NtNtNtNtB4_4arch7aarch643aes13Aarch64AesOpsNtNtB4_7structs7Width32EB4_
FNDA:0,_RINvNtCscwG700SpbJM_8crc_fast9algorithm17process_32_to_255NtNtNtNtB4_4arch7aarch643aes13Aarch64AesOpsNtNtB4_7structs7Width64EB4_
FNDA:16920,_RINvNtCscwG700SpbJM_8crc_fast9algorithm17process_32_to_255NtNtNtNtB4_4arch7aarch648aes_sha317Aarch64AesSha3OpsNtNtB4_7structs7Width32EB4_
FNDA:10773,_RINvNtCscwG700SpbJM_8crc_fast9algorithm17process_32_to_255NtNtNtNtB4_4arch7aarch648aes_sha317Aarch64AesSha3OpsNtNtB4_7structs7Width64EB4_
FNDA:0,_RINvNtCscwG700SpbJM_8crc_fast9algorithm18process_exactly_16NtNtNtNtB4_4arch7aarch643aes13Aarch64AesOpsNtNtB4_7structs7Width32EB4_
FNDA:0,_RINvNtCscwG700SpbJM_8crc_fast9algorithm18process_exactly_16NtNtNtNtB4_4arch7aarch643aes13Aarch64AesOpsNtNtB4_7structs7Width64EB4_
FNDA:176,_RINvNtCscwG700SpbJM_8crc_fast9algorithm18process_exactly_16NtNtNtNtB4_4arch7aarch648aes_sha317Aarch64AesSha3OpsNtNtB4_7structs7Width32EB4_
FNDA:112,_RINvNtCscwG700SpbJM_8crc_fast9algorithm18process_exactly_16NtNtNtNtB4_4arch7aarch648aes_sha317Aarch64AesSha3OpsNtNtB4_7structs7Width64EB4_
FNDA:0,_RINvNtCscwG700SpbJM_8crc_fast9algorithm19process_by_strategyNtNtNtNtB4_4arch7aarch643aes13Aarch64AesOpsNtNtB4_7structs7Width32EB4_
FNDA:0,_RINvNtCscwG700SpbJM_8crc_fast9algorithm19process_by_strategyNtNtNtNtB4_4arch7aarch643aes13Aarch64AesOpsNtNtB4_7structs7Width64EB4_
FNDA:22564,_RINvNtCscwG700SpbJM_8crc_fast9algorithm19process_by_strategyNtNtNtNtB4_4arch7aarch648aes_sha317Aarch64AesSha3OpsNtNtB4_7structs7Width32EB4_
FNDA:14385,_RINvNtCscwG700SpbJM_8crc_fast9algorithm19process_by_strategyNtNtNtNtB4_4arch7aarch648aes_sha317Aarch64AesSha3OpsNtNtB4_7structs7Width64EB4_
FNDA:0,_RINvNtCscwG700SpbJM_8crc_fast9algorithm19process_simd_chunksNtNtNtNtB4_4arch7aarch643aes13Aarch64AesOpsNtNtB4_7structs7Width32EB4_
FNDA:0,_RINvNtCscwG700SpbJM_8crc_fast9algorithm19process_simd_chunksNtNtNtNtB4_4arch7aarch643aes13Aarch64AesOpsNtNtB4_7structs7Width64EB4_
FNDA:19838,_RINvNtCscwG700SpbJM_8crc_fast9algorithm19process_simd_chunksNtNtNtNtB4_4arch7aarch648aes_sha317Aarch64AesSha3OpsNtNtB4_7structs7Width32EB4_
FNDA:12629,_RINvNtCscwG700SpbJM_8crc_fast9algorithm19process_simd_chunksNtNtNtNtB4_4arch7aarch648aes_sha317Aarch64AesSha3OpsNtNtB4_7structs7Width64EB4_
FNDA:0,_RINvNtCscwG700SpbJM_8crc_fast9algorithm21process_16_byte_blockNtNtNtNtB4_4arch7aarch643aes13Aarch64AesOpsEB4_
FNDA:32301,_RINvNtCscwG700SpbJM_8crc_fast9algorithm21process_16_byte_blockNtNtNtNtB4_4arch7aarch648aes_sha317Aarch64AesSha3OpsEB4_
FNDA:0,_RINvNtCscwG700SpbJM_8crc_fast9algorithm21process_large_alignedNtNtNtNtB4_4arch7aarch643aes13Aarch64AesOpsNtNtB4_7structs7Width32EB4_
FNDA:0,_RINvNtCscwG700SpbJM_8crc_fast9algorithm21process_large_alignedNtNtNtNtB4_4arch7aarch643aes13Aarch64AesOpsNtNtB4_7structs7Width64EB4_
FNDA:19838,_RINvNtCscwG700SpbJM_8crc_fast9algorithm21process_large_alignedNtNtNtNtB4_4arch7aarch648aes_sha317Aarch64AesSha3OpsNtNtB4_7structs7Width32EB4_
FNDA:12629,_RINvNtCscwG700SpbJM_8crc_fast9algorithm21process_large_alignedNtNtNtNtB4_4arch7aarch648aes_sha317Aarch64AesSha3OpsNtNtB4_7structs7Width64EB4_
FNDA:0,_RINvNtCscwG700SpbJM_8crc_fast9algorithm6updateNtNtNtNtB4_4arch7aarch643aes13Aarch64AesOpsNtNtB4_7structs7Width32EB4_
FNDA:0,_RINvNtCscwG700SpbJM_8crc_fast9algorithm6updateNtNtNtNtB4_4arch7aarch643aes13Aarch64AesOpsNtNtB4_7structs7Width64EB4_
FNDA:22818,_RINvNtCscwG700SpbJM_8crc_fast9algorithm6updateNtNtNtNtB4_4arch7aarch648aes_sha317Aarch64AesSha3OpsNtNtB4_7structs7Width32EB4_
FNDA:14547,_RINvNtCscwG700SpbJM_8crc_fast9algorithm6updateNtNtNtNtB4_4arch7aarch648aes_sha317Aarch64AesSha3OpsNtNtB4_7structs7Width64EB4_
FNDA:37345,_RNvNtCscwG700SpbJM_8crc_fast9algorithm18extract_keys_array
FNDA:0,_RINvNtCs3YYFpeUFfny_8crc_fast9algorithm6updateNtNtNtNtB4_4arch7aarch643aes13Aarch64AesOpsNtNtB4_7structs7Width32ECs4dsW9QDrSvF_12no_std_tests
FNDA:0,_RINvNtCs3YYFpeUFfny_8crc_fast9algorithm6updateNtNtNtNtB4_4arch7aarch643aes13Aarch64AesOpsNtNtB4_7structs7Width64ECs4dsW9QDrSvF_12no_std_tests
FNDA:3,_RINvNtCs3YYFpeUFfny_8crc_fast9algorithm6updateNtNtNtNtB4_4arch7aarch648aes_sha317Aarch64AesSha3OpsNtNtB4_7structs7Width32ECs4dsW9QDrSvF_12no_std_tests
FNDA:14,_RINvNtCs3YYFpeUFfny_8crc_fast9algorithm6updateNtNtNtNtB4_4arch7aarch648aes_sha317Aarch64AesSha3OpsNtNtB4_7structs7Width64ECs4dsW9QDrSvF_12no_std_tests
FNDA:0,_RINvNtCs3YYFpeUFfny_8crc_fast9algorithm6updateNtNtNtNtB4_4arch7aarch643aes13Aarch64AesOpsNtNtB4_7structs7Width32ECsiyVaUKbNjcY_10wasm_tests
FNDA:0,_RINvNtCs3YYFpeUFfny_8crc_fast9algorithm6updateNtNtNtNtB4_4arch7aarch643aes13Aarch64AesOpsNtNtB4_7structs7Width64ECsiyVaUKbNjcY_10wasm_tests
FNDA:3,_RINvNtCs3YYFpeUFfny_8crc_fast9algorithm6updateNtNtNtNtB4_4arch7aarch648aes_sha317Aarch64AesSha3OpsNtNtB4_7structs7Width32ECsiyVaUKbNjcY_10wasm_tests
FNDA:9,_RINvNtCs3YYFpeUFfny_8crc_fast9algorithm6updateNtNtNtNtB4_4arch7aarch648aes_sha317Aarch64AesSha3OpsNtNtB4_7structs7Width64ECsiyVaUKbNjcY_10wasm_tests
FNF:12
FNH:12
DA:27,37374
DA:28,37374
DA:29,37374
DA:30,37374
DA:31,37374
DA:32,37374
DA:33,37374
DA:34,37374
DA:35,37374
DA:36,37374
DA:37,37374
DA:38,37374
DA:39,37374
DA:40,37374
DA:41,37374
DA:42,37374
DA:43,37374
DA:44,37374
DA:45,37374
DA:46,37374
DA:47,37374
DA:48,37374
DA:49,37374
DA:50,37374
DA:51,37374
DA:52,37374
DA:53,37374
DA:57,37394
DA:58,37394
DA:59,37394
DA:60,37394
DA:61,37394
DA:62,37394
DA:63,37394
DA:64,37394
DA:66,37394
DA:67,37394
DA:68,20
DA:69,37374
DA:72,37374
DA:73,22839
DA:76,14535
DA:77,14535
DA:81,37374
DA:86,37374
DA:88,4906
DA:89,4906
DA:90,4906
DA:91,4906
DA:92,4906
DA:93,4906
DA:94,4906
DA:95,4906
DA:97,32468
DA:100,32468
DA:101,32468
DA:102,32468
DA:103,32468
DA:104,32468
DA:105,32468
DA:107,37394
DA:116,36977
DA:117,36977
DA:118,36977
DA:119,36977
DA:120,36977
DA:121,36977
DA:122,36977
DA:123,36977
DA:124,36977
DA:125,36977
DA:127,36977
DA:128,4676
DA:129,2834
DA:130,1842
DA:131,0
DA:134,288
DA:137,4320
DA:140,27693
DA:143,36977
DA:152,32468
DA:153,32468
DA:154,32468
DA:155,32468
DA:156,32468
DA:157,32468
DA:158,32468
DA:159,32468
DA:160,32468
DA:163,32468
DA:165,32468
DA:166,32468
DA:167,6
DA:168,6
DA:169,6
DA:170,6
DA:171,6
DA:172,6
DA:173,32462
DA:176,32468
DA:177,27859
DA:178,32468
DA:179,32468
DA:180,32468
DA:183,32468
DA:184,32065
DA:186,32065
DA:187,403
DA:190,403
DA:191,0
DA:194,0
DA:195,0
DA:196,32468
DA:205,32468
DA:206,32468
DA:207,32468
DA:208,32468
DA:209,32468
DA:210,32468
DA:211,32468
DA:212,32468
DA:213,32468
DA:216,32468
DA:219,292212
DA:220,259744
DA:221,259744
DA:224,32468
DA:227,32468
DA:230,876386
DA:231,6751344
DA:232,6751344
DA:233,6751344
DA:234,6751344
DA:235,6751344
DA:236,6751344
DA:237,6751344
DA:238,6751344
DA:239,6751344
DA:240,6751344
DA:241,6751344
DA:242,6751344
DA:243,6751344
DA:244,6751344
DA:245,6751344
DA:246,6751344
DA:250,32468
DA:253,32468
DA:254,32468
DA:255,32468
DA:256,32468
DA:257,32468
DA:258,32468
DA:259,32468
DA:260,32468
DA:261,32468
DA:263,227276
DA:264,227276
DA:265,227276
DA:266,227276
DA:267,227276
DA:268,227276
DA:270,227276
DA:274,32468
DA:275,32468
DA:276,32468
DA:285,288
DA:286,288
DA:287,288
DA:288,288
DA:289,288
DA:290,288
DA:291,288
DA:292,288
DA:293,288
DA:296,288
DA:297,288
DA:298,288
DA:299,288
DA:300,288
DA:302,288
DA:311,32301
DA:312,32301
DA:313,32301
DA:314,32301
DA:315,32301
DA:316,32301
DA:317,32301
DA:318,32301
DA:321,32301
DA:322,32301
DA:323,32301
DA:325,32301
DA:334,7142233
DA:335,7142233
DA:336,7142233
DA:337,7142233
DA:338,7142233
DA:339,7142233
DA:340,7142233
DA:342,7142233
DA:343,4388284
DA:344,2753949
DA:346,7142233
DA:355,97023
DA:356,97023
DA:357,97023
DA:358,97023
DA:359,97023
DA:360,97023
DA:361,97023
DA:362,97023
DA:363,97023
DA:366,97023
DA:367,97023
DA:368,97023
DA:369,97023
DA:372,97023
DA:374,97023
DA:375,97023
DA:385,4320
DA:386,4320
DA:387,4320
DA:388,4320
DA:389,4320
DA:390,4320
DA:391,4320
DA:392,4320
DA:393,4320
DA:396,4320
DA:399,4320
DA:402,4320
DA:403,4320
DA:404,4320
DA:405,4320
DA:406,4320
DA:407,4320
DA:408,4320
DA:409,4320
DA:410,4320
DA:411,4320
DA:412,4320
DA:416,4320
DA:417,4320
DA:427,27693
DA:428,27693
DA:429,27693
DA:430,27693
DA:431,27693
DA:432,27693
DA:433,27693
DA:434,27693
DA:435,27693
DA:437,27693
DA:438,27693
DA:441,27693
DA:444,27693
DA:447,124716
DA:448,97023
DA:449,97023
DA:450,97023
DA:451,97023
DA:452,97023
DA:453,97023
DA:454,97023
DA:455,97023
DA:456,97023
DA:457,97023
DA:458,97023
DA:459,97023
DA:460,97023
DA:461,97023
DA:464,27693
DA:465,25962
DA:466,25962
DA:467,25962
DA:468,25962
DA:469,25962
DA:470,25962
DA:471,25962
DA:472,25962
DA:473,25962
DA:474,25962
DA:475,25962
DA:476,25962
DA:477,25962
DA:478,25962
DA:481,27693
DA:482,27693
DA:512,30282
DA:513,30282
DA:514,30282
DA:515,30282
DA:516,30282
DA:517,30282
DA:518,30282
DA:519,30282
DA:520,30282
DA:521,30282
DA:523,30282
DA:524,30282
DA:525,30282
DA:527,30282
DA:528,30282
DA:529,30282
DA:531,30282
DA:533,18506
DA:534,18506
DA:535,18506
DA:536,18506
DA:537,18506
DA:539,18506
DA:541,18506
DA:542,10092
DA:544,10092
DA:546,10092
DA:547,10092
DA:548,10092
DA:549,10092
DA:551,10092
DA:553,8414
DA:555,8414
DA:556,8414
DA:557,8414
DA:558,8414
DA:560,8414
DA:563,18506
DA:565,18506
DA:567,11776
DA:568,11776
DA:570,11776
DA:571,11776
DA:572,11776
DA:574,11776
DA:575,11776
DA:576,11776
DA:577,11776
DA:578,11776
DA:581,11776
DA:582,11776
DA:583,11776
DA:584,11776
DA:586,11776
DA:588,11776
DA:590,30282
BRF:0
BRH:0
LF:344
LH:333
end_of_record
SF:/Users/mr.wolf/loadingalias/crc-fast-rust/src/arch/aarch64/aes.rs
FN:261,_RNvMs_NtNtNtCs3YYFpeUFfny_8crc_fast4arch7aarch643aesNtB4_13Aarch64AesOps13load_key_pairBa_
FN:83,_RNvXNtNtNtCs3YYFpeUFfny_8crc_fast4arch7aarch643aesNtB2_13Aarch64AesOpsNtNtB8_6traits7ArchOps10load_bytesB8_
FN:131,_RNvXNtNtNtCs3YYFpeUFfny_8crc_fast4arch7aarch643aesNtB2_13Aarch64AesOpsNtNtB8_6traits7ArchOps11and_vectorsB8_
FN:77,_RNvXNtNtNtCs3YYFpeUFfny_8crc_fast4arch7aarch643aesNtB2_13Aarch64AesOpsNtNtB8_6traits7ArchOps11xor_vectorsB8_
FN:63,_RNvXNtNtNtCs3YYFpeUFfny_8crc_fast4arch7aarch643aesNtB2_13Aarch64AesOpsNtNtB8_6traits7ArchOps12extract_u64sB8_
FN:89,_RNvXNtNtNtCs3YYFpeUFfny_8crc_fast4arch7aarch643aesNtB2_13Aarch64AesOpsNtNtB8_6traits7ArchOps12load_alignedB8_
FN:163,_RNvXNtNtNtCs3YYFpeUFfny_8crc_fast4arch7aarch643aesNtB2_13Aarch64AesOpsNtNtB8_6traits7ArchOps12shift_left_4B8_
FN:113,_RNvXNtNtNtCs3YYFpeUFfny_8crc_fast4arch7aarch643aesNtB2_13Aarch64AesOpsNtNtB8_6traits7ArchOps12shift_left_8B8_
FN:248,_RNvXNtNtNtCs3YYFpeUFfny_8crc_fast4arch7aarch643aesNtB2_13Aarch64AesOpsNtNtB8_6traits7ArchOps12xor3_vectorsB8_
FN:101,_RNvXNtNtNtCs3YYFpeUFfny_8crc_fast4arch7aarch643aesNtB2_13Aarch64AesOpsNtNtB8_6traits7ArchOps13blend_vectorsB8_
FN:119,_RNvXNtNtNtCs3YYFpeUFfny_8crc_fast4arch7aarch643aesNtB2_13Aarch64AesOpsNtNtB8_6traits7ArchOps13set_all_bytesB8_
FN:205,_RNvXNtNtNtCs3YYFpeUFfny_8crc_fast4arch7aarch643aesNtB2_13Aarch64AesOpsNtNtB8_6traits7ArchOps13shift_left_12B8_
FN:181,_RNvXNtNtNtCs3YYFpeUFfny_8crc_fast4arch7aarch643aesNtB2_13Aarch64AesOpsNtNtB8_6traits7ArchOps13shift_right_5B8_
FN:187,_RNvXNtNtNtCs3YYFpeUFfny_8crc_fast4arch7aarch643aesNtB2_13Aarch64AesOpsNtNtB8_6traits7ArchOps13shift_right_6B8_
FN:193,_RNvXNtNtNtCs3YYFpeUFfny_8crc_fast4arch7aarch643aesNtB2_13Aarch64AesOpsNtNtB8_6traits7ArchOps13shift_right_7B8_
FN:175,_RNvXNtNtNtCs3YYFpeUFfny_8crc_fast4arch7aarch643aesNtB2_13Aarch64AesOpsNtNtB8_6traits7ArchOps13shift_right_8B8_
FN:95,_RNvXNtNtNtCs3YYFpeUFfny_8crc_fast4arch7aarch643aesNtB2_13Aarch64AesOpsNtNtB8_6traits7ArchOps13shuffle_bytesB8_
FN:199,_RNvXNtNtNtCs3YYFpeUFfny_8crc_fast4arch7aarch643aesNtB2_13Aarch64AesOpsNtNtB8_6traits7ArchOps14shift_right_12B8_
FN:213,_RNvXNtNtNtCs3YYFpeUFfny_8crc_fast4arch7aarch643aesNtB2_13Aarch64AesOpsNtNtB8_6traits7ArchOps16carryless_mul_00B8_
FN:222,_RNvXNtNtNtCs3YYFpeUFfny_8crc_fast4arch7aarch643aesNtB2_13Aarch64AesOpsNtNtB8_6traits7ArchOps16carryless_mul_01B8_
FN:230,_RNvXNtNtNtCs3YYFpeUFfny_8crc_fast4arch7aarch643aesNtB2_13Aarch64AesOpsNtNtB8_6traits7ArchOps16carryless_mul_10B8_
FN:239,_RNvXNtNtNtCs3YYFpeUFfny_8crc_fast4arch7aarch643aesNtB2_13Aarch64AesOpsNtNtB8_6traits7ArchOps16carryless_mul_11B8_
FN:125,_RNvXNtNtNtCs3YYFpeUFfny_8crc_fast4arch7aarch643aesNtB2_13Aarch64AesOpsNtNtB8_6traits7ArchOps19create_compare_maskB8_
FN:149,_RNvXNtNtNtCs3YYFpeUFfny_8crc_fast4arch7aarch643aesNtB2_13Aarch64AesOpsNtNtB8_6traits7ArchOps22create_vector_from_u32B8_
FN:50,_RNvXNtNtNtCs3YYFpeUFfny_8crc_fast4arch7aarch643aesNtB2_13Aarch64AesOpsNtNtB8_6traits7ArchOps22create_vector_from_u64B8_
FN:24,_RNvXNtNtNtCs3YYFpeUFfny_8crc_fast4arch7aarch643aesNtB2_13Aarch64AesOpsNtNtB8_6traits7ArchOps27create_vector_from_u64_pairB8_
FN:40,_RNvXNtNtNtCs3YYFpeUFfny_8crc_fast4arch7aarch643aesNtB2_13Aarch64AesOpsNtNtB8_6traits7ArchOps41create_vector_from_u64_pair_non_reflectedB8_
FN:89,_RNvXNtNtNtCs3YYFpeUFfny_8crc_fast4arch7aarch643aesNtB2_13Aarch64AesOpsNtNtB8_6traits7ArchOps12load_alignedCsa96wfuC4ae_8checksum
FN:149,_RNvXNtNtNtCs3YYFpeUFfny_8crc_fast4arch7aarch643aesNtB2_13Aarch64AesOpsNtNtB8_6traits7ArchOps22create_vector_from_u32Csa96wfuC4ae_8checksum
FN:50,_RNvXNtNtNtCs3YYFpeUFfny_8crc_fast4arch7aarch643aesNtB2_13Aarch64AesOpsNtNtB8_6traits7ArchOps22create_vector_from_u64Csa96wfuC4ae_8checksum
FN:89,_RNvXNtNtNtCs3YYFpeUFfny_8crc_fast4arch7aarch643aesNtB2_13Aarch64AesOpsNtNtB8_6traits7ArchOps12load_alignedCseaXugnuoQ7h_8checksum
FN:149,_RNvXNtNtNtCs3YYFpeUFfny_8crc_fast4arch7aarch643aesNtB2_13Aarch64AesOpsNtNtB8_6traits7ArchOps22create_vector_from_u32CseaXugnuoQ7h_8checksum
FN:50,_RNvXNtNtNtCs3YYFpeUFfny_8crc_fast4arch7aarch643aesNtB2_13Aarch64AesOpsNtNtB8_6traits7ArchOps22create_vector_from_u64CseaXugnuoQ7h_8checksum
FN:261,_RNvMs_NtNtNtCscwG700SpbJM_8crc_fast4arch7aarch643aesNtB4_13Aarch64AesOps13load_key_pairBa_
FN:83,_RNvXNtNtNtCscwG700SpbJM_8crc_fast4arch7aarch643aesNtB2_13Aarch64AesOpsNtNtB8_6traits7ArchOps10load_bytesB8_
FN:131,_RNvXNtNtNtCscwG700SpbJM_8crc_fast4arch7aarch643aesNtB2_13Aarch64AesOpsNtNtB8_6traits7ArchOps11and_vectorsB8_
FN:77,_RNvXNtNtNtCscwG700SpbJM_8crc_fast4arch7aarch643aesNtB2_13Aarch64AesOpsNtNtB8_6traits7ArchOps11xor_vectorsB8_
FN:63,_RNvXNtNtNtCscwG700SpbJM_8crc_fast4arch7aarch643aesNtB2_13Aarch64AesOpsNtNtB8_6traits7ArchOps12extract_u64sB8_
FN:89,_RNvXNtNtNtCscwG700SpbJM_8crc_fast4arch7aarch643aesNtB2_13Aarch64AesOpsNtNtB8_6traits7ArchOps12load_alignedB8_
FN:163,_RNvXNtNtNtCscwG700SpbJM_8crc_fast4arch7aarch643aesNtB2_13Aarch64AesOpsNtNtB8_6traits7ArchOps12shift_left_4B8_
FN:113,_RNvXNtNtNtCscwG700SpbJM_8crc_fast4arch7aarch643aesNtB2_13Aarch64AesOpsNtNtB8_6traits7ArchOps12shift_left_8B8_
FN:248,_RNvXNtNtNtCscwG700SpbJM_8crc_fast4arch7aarch643aesNtB2_13Aarch64AesOpsNtNtB8_6traits7ArchOps12xor3_vectorsB8_
FN:101,_RNvXNtNtNtCscwG700SpbJM_8crc_fast4arch7aarch643aesNtB2_13Aarch64AesOpsNtNtB8_6traits7ArchOps13blend_vectorsB8_
FN:119,_RNvXNtNtNtCscwG700SpbJM_8crc_fast4arch7aarch643aesNtB2_13Aarch64AesOpsNtNtB8_6traits7ArchOps13set_all_bytesB8_
FN:205,_RNvXNtNtNtCscwG700SpbJM_8crc_fast4arch7aarch643aesNtB2_13Aarch64AesOpsNtNtB8_6traits7ArchOps13shift_left_12B8_
FN:181,_RNvXNtNtNtCscwG700SpbJM_8crc_fast4arch7aarch643aesNtB2_13Aarch64AesOpsNtNtB8_6traits7ArchOps13shift_right_5B8_
FN:187,_RNvXNtNtNtCscwG700SpbJM_8crc_fast4arch7aarch643aesNtB2_13Aarch64AesOpsNtNtB8_6traits7ArchOps13shift_right_6B8_
FN:193,_RNvXNtNtNtCscwG700SpbJM_8crc_fast4arch7aarch643aesNtB2_13Aarch64AesOpsNtNtB8_6traits7ArchOps13shift_right_7B8_
FN:175,_RNvXNtNtNtCscwG700SpbJM_8crc_fast4arch7aarch643aesNtB2_13Aarch64AesOpsNtNtB8_6traits7ArchOps13shift_right_8B8_
FN:95,_RNvXNtNtNtCscwG700SpbJM_8crc_fast4arch7aarch643aesNtB2_13Aarch64AesOpsNtNtB8_6traits7ArchOps13shuffle_bytesB8_
FN:199,_RNvXNtNtNtCscwG700SpbJM_8crc_fast4arch7aarch643aesNtB2_13Aarch64AesOpsNtNtB8_6traits7ArchOps14shift_right_12B8_
FN:213,_RNvXNtNtNtCscwG700SpbJM_8crc_fast4arch7aarch643aesNtB2_13Aarch64AesOpsNtNtB8_6traits7ArchOps16carryless_mul_00B8_
FN:222,_RNvXNtNtNtCscwG700SpbJM_8crc_fast4arch7aarch643aesNtB2_13Aarch64AesOpsNtNtB8_6traits7ArchOps16carryless_mul_01B8_
FN:230,_RNvXNtNtNtCscwG700SpbJM_8crc_fast4arch7aarch643aesNtB2_13Aarch64AesOpsNtNtB8_6traits7ArchOps16carryless_mul_10B8_
FN:239,_RNvXNtNtNtCscwG700SpbJM_8crc_fast4arch7aarch643aesNtB2_13Aarch64AesOpsNtNtB8_6traits7ArchOps16carryless_mul_11B8_
FN:125,_RNvXNtNtNtCscwG700SpbJM_8crc_fast4arch7aarch643aesNtB2_13Aarch64AesOpsNtNtB8_6traits7ArchOps19create_compare_maskB8_
FN:149,_RNvXNtNtNtCscwG700SpbJM_8crc_fast4arch7aarch643aesNtB2_13Aarch64AesOpsNtNtB8_6traits7ArchOps22create_vector_from_u32B8_
FN:50,_RNvXNtNtNtCscwG700SpbJM_8crc_fast4arch7aarch643aesNtB2_13Aarch64AesOpsNtNtB8_6traits7ArchOps22create_vector_from_u64B8_
FN:24,_RNvXNtNtNtCscwG700SpbJM_8crc_fast4arch7aarch643aesNtB2_13Aarch64AesOpsNtNtB8_6traits7ArchOps27create_vector_from_u64_pairB8_
FN:40,_RNvXNtNtNtCscwG700SpbJM_8crc_fast4arch7aarch643aesNtB2_13Aarch64AesOpsNtNtB8_6traits7ArchOps41create_vector_from_u64_pair_non_reflectedB8_
FN:143,_RNvXNtNtNtCscwG700SpbJM_8crc_fast4arch7aarch643aesNtB2_13Aarch64AesOpsNtNtB8_6traits7ArchOps13shift_left_32B8_
FN:169,_RNvXNtNtNtCscwG700SpbJM_8crc_fast4arch7aarch643aesNtB2_13Aarch64AesOpsNtNtB8_6traits7ArchOps13shift_right_4B8_
FN:137,_RNvXNtNtNtCscwG700SpbJM_8crc_fast4arch7aarch643aesNtB2_13Aarch64AesOpsNtNtB8_6traits7ArchOps14shift_right_32B8_
FN:70,_RNvXNtNtNtCscwG700SpbJM_8crc_fast4arch7aarch643aesNtB2_13Aarch64AesOpsNtNtB8_6traits7ArchOps15extract_poly64sB8_
FN:143,_RNvXNtNtNtCs3YYFpeUFfny_8crc_fast4arch7aarch643aesNtB2_13Aarch64AesOpsNtNtB8_6traits7ArchOps13shift_left_32B8_
FN:169,_RNvXNtNtNtCs3YYFpeUFfny_8crc_fast4arch7aarch643aesNtB2_13Aarch64AesOpsNtNtB8_6traits7ArchOps13shift_right_4B8_
FN:137,_RNvXNtNtNtCs3YYFpeUFfny_8crc_fast4arch7aarch643aesNtB2_13Aarch64AesOpsNtNtB8_6traits7ArchOps14shift_right_32B8_
FN:70,_RNvXNtNtNtCs3YYFpeUFfny_8crc_fast4arch7aarch643aesNtB2_13Aarch64AesOpsNtNtB8_6traits7ArchOps15extract_poly64sB8_
FN:89,_RNvXNtNtNtCs3YYFpeUFfny_8crc_fast4arch7aarch643aesNtB2_13Aarch64AesOpsNtNtB8_6traits7ArchOps12load_alignedCs4dsW9QDrSvF_12no_std_tests
FN:149,_RNvXNtNtNtCs3YYFpeUFfny_8crc_fast4arch7aarch643aesNtB2_13Aarch64AesOpsNtNtB8_6traits7ArchOps22create_vector_from_u32Cs4dsW9QDrSvF_12no_std_tests
FN:50,_RNvXNtNtNtCs3YYFpeUFfny_8crc_fast4arch7aarch643aesNtB2_13Aarch64AesOpsNtNtB8_6traits7ArchOps22create_vector_from_u64Cs4dsW9QDrSvF_12no_std_tests
FN:89,_RNvXNtNtNtCs3YYFpeUFfny_8crc_fast4arch7aarch643aesNtB2_13Aarch64AesOpsNtNtB8_6traits7ArchOps12load_alignedCsiyVaUKbNjcY_10wasm_tests
FN:149,_RNvXNtNtNtCs3YYFpeUFfny_8crc_fast4arch7aarch643aesNtB2_13Aarch64AesOpsNtNtB8_6traits7ArchOps22create_vector_from_u32CsiyVaUKbNjcY_10wasm_tests
FN:50,_RNvXNtNtNtCs3YYFpeUFfny_8crc_fast4arch7aarch643aesNtB2_13Aarch64AesOpsNtNtB8_6traits7ArchOps22create_vector_from_u64CsiyVaUKbNjcY_10wasm_tests
FNDA:66,_RNvMs_NtNtNtCs3YYFpeUFfny_8crc_fast4arch7aarch643aesNtB4_13Aarch64AesOps13load_key_pairBa_
FNDA:68,_RNvXNtNtNtCs3YYFpeUFfny_8crc_fast4arch7aarch643aesNtB2_13Aarch64AesOpsNtNtB8_6traits7ArchOps10load_bytesB8_
FNDA:9,_RNvXNtNtNtCs3YYFpeUFfny_8crc_fast4arch7aarch643aesNtB2_13Aarch64AesOpsNtNtB8_6traits7ArchOps11and_vectorsB8_
FNDA:91,_RNvXNtNtNtCs3YYFpeUFfny_8crc_fast4arch7aarch643aesNtB2_13Aarch64AesOpsNtNtB8_6traits7ArchOps11xor_vectorsB8_
FNDA:30,_RNvXNtNtNtCs3YYFpeUFfny_8crc_fast4arch7aarch643aesNtB2_13Aarch64AesOpsNtNtB8_6traits7ArchOps12extract_u64sB8_
FNDA:18,_RNvXNtNtNtCs3YYFpeUFfny_8crc_fast4arch7aarch643aesNtB2_13Aarch64AesOpsNtNtB8_6traits7ArchOps12load_alignedB8_
FNDA:12,_RNvXNtNtNtCs3YYFpeUFfny_8crc_fast4arch7aarch643aesNtB2_13Aarch64AesOpsNtNtB8_6traits7ArchOps12shift_left_4B8_
FNDA:29,_RNvXNtNtNtCs3YYFpeUFfny_8crc_fast4arch7aarch643aesNtB2_13Aarch64AesOpsNtNtB8_6traits7ArchOps12shift_left_8B8_
FNDA:0,_RNvXNtNtNtCs3YYFpeUFfny_8crc_fast4arch7aarch643aesNtB2_13Aarch64AesOpsNtNtB8_6traits7ArchOps12xor3_vectorsB8_
FNDA:0,_RNvXNtNtNtCs3YYFpeUFfny_8crc_fast4arch7aarch643aesNtB2_13Aarch64AesOpsNtNtB8_6traits7ArchOps13blend_vectorsB8_
FNDA:0,_RNvXNtNtNtCs3YYFpeUFfny_8crc_fast4arch7aarch643aesNtB2_13Aarch64AesOpsNtNtB8_6traits7ArchOps13set_all_bytesB8_
FNDA:0,_RNvXNtNtNtCs3YYFpeUFfny_8crc_fast4arch7aarch643aesNtB2_13Aarch64AesOpsNtNtB8_6traits7ArchOps13shift_left_12B8_
FNDA:0,_RNvXNtNtNtCs3YYFpeUFfny_8crc_fast4arch7aarch643aesNtB2_13Aarch64AesOpsNtNtB8_6traits7ArchOps13shift_right_5B8_
FNDA:0,_RNvXNtNtNtCs3YYFpeUFfny_8crc_fast4arch7aarch643aesNtB2_13Aarch64AesOpsNtNtB8_6traits7ArchOps13shift_right_6B8_
FNDA:0,_RNvXNtNtNtCs3YYFpeUFfny_8crc_fast4arch7aarch643aesNtB2_13Aarch64AesOpsNtNtB8_6traits7ArchOps13shift_right_7B8_
FNDA:14,_RNvXNtNtNtCs3YYFpeUFfny_8crc_fast4arch7aarch643aesNtB2_13Aarch64AesOpsNtNtB8_6traits7ArchOps13shift_right_8B8_
FNDA:43,_RNvXNtNtNtCs3YYFpeUFfny_8crc_fast4arch7aarch643aesNtB2_13Aarch64AesOpsNtNtB8_6traits7ArchOps13shuffle_bytesB8_
FNDA:6,_RNvXNtNtNtCs3YYFpeUFfny_8crc_fast4arch7aarch643aesNtB2_13Aarch64AesOpsNtNtB8_6traits7ArchOps14shift_right_12B8_
FNDA:531,_RNvXNtNtNtCs3YYFpeUFfny_8crc_fast4arch7aarch643aesNtB2_13Aarch64AesOpsNtNtB8_6traits7ArchOps16carryless_mul_00B8_
FNDA:32,_RNvXNtNtNtCs3YYFpeUFfny_8crc_fast4arch7aarch643aesNtB2_13Aarch64AesOpsNtNtB8_6traits7ArchOps16carryless_mul_01B8_
FNDA:26,_RNvXNtNtNtCs3YYFpeUFfny_8crc_fast4arch7aarch643aesNtB2_13Aarch64AesOpsNtNtB8_6traits7ArchOps16carryless_mul_10B8_
FNDA:520,_RNvXNtNtNtCs3YYFpeUFfny_8crc_fast4arch7aarch643aesNtB2_13Aarch64AesOpsNtNtB8_6traits7ArchOps16carryless_mul_11B8_
FNDA:0,_RNvXNtNtNtCs3YYFpeUFfny_8crc_fast4arch7aarch643aesNtB2_13Aarch64AesOpsNtNtB8_6traits7ArchOps19create_compare_maskB8_
FNDA:0,_RNvXNtNtNtCs3YYFpeUFfny_8crc_fast4arch7aarch643aesNtB2_13Aarch64AesOpsNtNtB8_6traits7ArchOps22create_vector_from_u32B8_
FNDA:1,_RNvXNtNtNtCs3YYFpeUFfny_8crc_fast4arch7aarch643aesNtB2_13Aarch64AesOpsNtNtB8_6traits7ArchOps22create_vector_from_u64B8_
FNDA:48,_RNvXNtNtNtCs3YYFpeUFfny_8crc_fast4arch7aarch643aesNtB2_13Aarch64AesOpsNtNtB8_6traits7ArchOps27create_vector_from_u64_pairB8_
FNDA:18,_RNvXNtNtNtCs3YYFpeUFfny_8crc_fast4arch7aarch643aesNtB2_13Aarch64AesOpsNtNtB8_6traits7ArchOps41create_vector_from_u64_pair_non_reflectedB8_
FNDA:0,_RNvXNtNtNtCs3YYFpeUFfny_8crc_fast4arch7aarch643aesNtB2_13Aarch64AesOpsNtNtB8_6traits7ArchOps12load_alignedCsa96wfuC4ae_8checksum
FNDA:0,_RNvXNtNtNtCs3YYFpeUFfny_8crc_fast4arch7aarch643aesNtB2_13Aarch64AesOpsNtNtB8_6traits7ArchOps22create_vector_from_u32Csa96wfuC4ae_8checksum
FNDA:0,_RNvXNtNtNtCs3YYFpeUFfny_8crc_fast4arch7aarch643aesNtB2_13Aarch64AesOpsNtNtB8_6traits7ArchOps22create_vector_from_u64Csa96wfuC4ae_8checksum
FNDA:0,_RNvXNtNtNtCs3YYFpeUFfny_8crc_fast4arch7aarch643aesNtB2_13Aarch64AesOpsNtNtB8_6traits7ArchOps12load_alignedCseaXugnuoQ7h_8checksum
FNDA:0,_RNvXNtNtNtCs3YYFpeUFfny_8crc_fast4arch7aarch643aesNtB2_13Aarch64AesOpsNtNtB8_6traits7ArchOps22create_vector_from_u32CseaXugnuoQ7h_8checksum
FNDA:0,_RNvXNtNtNtCs3YYFpeUFfny_8crc_fast4arch7aarch643aesNtB2_13Aarch64AesOpsNtNtB8_6traits7ArchOps22create_vector_from_u64CseaXugnuoQ7h_8checksum
FNDA:496933,_RNvMs_NtNtNtCscwG700SpbJM_8crc_fast4arch7aarch643aesNtB4_13Aarch64AesOps13load_key_pairBa_
FNDA:200297,_RNvXNtNtNtCscwG700SpbJM_8crc_fast4arch7aarch643aesNtB2_13Aarch64AesOpsNtNtB8_6traits7ArchOps10load_bytesB8_
FNDA:49536,_RNvXNtNtNtCscwG700SpbJM_8crc_fast4arch7aarch643aesNtB2_13Aarch64AesOpsNtNtB8_6traits7ArchOps11and_vectorsB8_
FNDA:271551,_RNvXNtNtNtCscwG700SpbJM_8crc_fast4arch7aarch643aesNtB2_13Aarch64AesOpsNtNtB8_6traits7ArchOps11xor_vectorsB8_
FNDA:69818,_RNvXNtNtNtCscwG700SpbJM_8crc_fast4arch7aarch643aesNtB2_13Aarch64AesOpsNtNtB8_6traits7ArchOps12extract_u64sB8_
FNDA:66901,_RNvXNtNtNtCscwG700SpbJM_8crc_fast4arch7aarch643aesNtB2_13Aarch64AesOpsNtNtB8_6traits7ArchOps12load_alignedB8_
FNDA:38566,_RNvXNtNtNtCscwG700SpbJM_8crc_fast4arch7aarch643aesNtB2_13Aarch64AesOpsNtNtB8_6traits7ArchOps12shift_left_4B8_
FNDA:45790,_RNvXNtNtNtCscwG700SpbJM_8crc_fast4arch7aarch643aesNtB2_13Aarch64AesOpsNtNtB8_6traits7ArchOps12shift_left_8B8_
FNDA:0,_RNvXNtNtNtCscwG700SpbJM_8crc_fast4arch7aarch643aesNtB2_13Aarch64AesOpsNtNtB8_6traits7ArchOps12xor3_vectorsB8_
FNDA:30282,_RNvXNtNtNtCscwG700SpbJM_8crc_fast4arch7aarch643aesNtB2_13Aarch64AesOpsNtNtB8_6traits7ArchOps13blend_vectorsB8_
FNDA:30282,_RNvXNtNtNtCscwG700SpbJM_8crc_fast4arch7aarch643aesNtB2_13Aarch64AesOpsNtNtB8_6traits7ArchOps13set_all_bytesB8_
FNDA:22804,_RNvXNtNtNtCscwG700SpbJM_8crc_fast4arch7aarch643aesNtB2_13Aarch64AesOpsNtNtB8_6traits7ArchOps13shift_left_12B8_
FNDA:95,_RNvXNtNtNtCscwG700SpbJM_8crc_fast4arch7aarch643aesNtB2_13Aarch64AesOpsNtNtB8_6traits7ArchOps13shift_right_5B8_
FNDA:85,_RNvXNtNtNtCscwG700SpbJM_8crc_fast4arch7aarch643aesNtB2_13Aarch64AesOpsNtNtB8_6traits7ArchOps13shift_right_6B8_
FNDA:85,_RNvXNtNtNtCscwG700SpbJM_8crc_fast4arch7aarch643aesNtB2_13Aarch64AesOpsNtNtB8_6traits7ArchOps13shift_right_7B8_
FNDA:41809,_RNvXNtNtNtCscwG700SpbJM_8crc_fast4arch7aarch643aesNtB2_13Aarch64AesOpsNtNtB8_6traits7ArchOps13shift_right_8B8_
FNDA:2831352,_RNvXNtNtNtCscwG700SpbJM_8crc_fast4arch7aarch643aesNtB2_13Aarch64AesOpsNtNtB8_6traits7ArchOps13shuffle_bytesB8_
FNDA:19018,_RNvXNtNtNtCscwG700SpbJM_8crc_fast4arch7aarch643aesNtB2_13Aarch64AesOpsNtNtB8_6traits7ArchOps14shift_right_12B8_
FNDA:4761582,_RNvXNtNtNtCscwG700SpbJM_8crc_fast4arch7aarch643aesNtB2_13Aarch64AesOpsNtNtB8_6traits7ArchOps16carryless_mul_00B8_
FNDA:2481232,_RNvXNtNtNtCscwG700SpbJM_8crc_fast4arch7aarch643aesNtB2_13Aarch64AesOpsNtNtB8_6traits7ArchOps16carryless_mul_01B8_
FNDA:2470492,_RNvXNtNtNtCscwG700SpbJM_8crc_fast4arch7aarch643aesNtB2_13Aarch64AesOpsNtNtB8_6traits7ArchOps16carryless_mul_10B8_
FNDA:4746160,_RNvXNtNtNtCscwG700SpbJM_8crc_fast4arch7aarch643aesNtB2_13Aarch64AesOpsNtNtB8_6traits7ArchOps16carryless_mul_11B8_
FNDA:10092,_RNvXNtNtNtCscwG700SpbJM_8crc_fast4arch7aarch643aesNtB2_13Aarch64AesOpsNtNtB8_6traits7ArchOps19create_compare_maskB8_
FNDA:42646,_RNvXNtNtNtCscwG700SpbJM_8crc_fast4arch7aarch643aesNtB2_13Aarch64AesOpsNtNtB8_6traits7ArchOps22create_vector_from_u32B8_
FNDA:27172,_RNvXNtNtNtCscwG700SpbJM_8crc_fast4arch7aarch643aesNtB2_13Aarch64AesOpsNtNtB8_6traits7ArchOps22create_vector_from_u64B8_
FNDA:176759,_RNvXNtNtNtCscwG700SpbJM_8crc_fast4arch7aarch643aesNtB2_13Aarch64AesOpsNtNtB8_6traits7ArchOps27create_vector_from_u64_pairB8_
FNDA:320174,_RNvXNtNtNtCscwG700SpbJM_8crc_fast4arch7aarch643aesNtB2_13Aarch64AesOpsNtNtB8_6traits7ArchOps41create_vector_from_u64_pair_non_reflectedB8_
FNDA:0,_RNvXNtNtNtCscwG700SpbJM_8crc_fast4arch7aarch643aesNtB2_13Aarch64AesOpsNtNtB8_6traits7ArchOps13shift_left_32B8_
FNDA:0,_RNvXNtNtNtCscwG700SpbJM_8crc_fast4arch7aarch643aesNtB2_13Aarch64AesOpsNtNtB8_6traits7ArchOps13shift_right_4B8_
FNDA:0,_RNvXNtNtNtCscwG700SpbJM_8crc_fast4arch7aarch643aesNtB2_13Aarch64AesOpsNtNtB8_6traits7ArchOps14shift_right_32B8_
FNDA:0,_RNvXNtNtNtCscwG700SpbJM_8crc_fast4arch7aarch643aesNtB2_13Aarch64AesOpsNtNtB8_6traits7ArchOps15extract_poly64sB8_
FNDA:0,_RNvXNtNtNtCs3YYFpeUFfny_8crc_fast4arch7aarch643aesNtB2_13Aarch64AesOpsNtNtB8_6traits7ArchOps13shift_left_32B8_
FNDA:0,_RNvXNtNtNtCs3YYFpeUFfny_8crc_fast4arch7aarch643aesNtB2_13Aarch64AesOpsNtNtB8_6traits7ArchOps13shift_right_4B8_
FNDA:0,_RNvXNtNtNtCs3YYFpeUFfny_8crc_fast4arch7aarch643aesNtB2_13Aarch64AesOpsNtNtB8_6traits7ArchOps14shift_right_32B8_
FNDA:0,_RNvXNtNtNtCs3YYFpeUFfny_8crc_fast4arch7aarch643aesNtB2_13Aarch64AesOpsNtNtB8_6traits7ArchOps15extract_poly64sB8_
FNDA:5,_RNvXNtNtNtCs3YYFpeUFfny_8crc_fast4arch7aarch643aesNtB2_13Aarch64AesOpsNtNtB8_6traits7ArchOps12load_alignedCs4dsW9QDrSvF_12no_std_tests
FNDA:3,_RNvXNtNtNtCs3YYFpeUFfny_8crc_fast4arch7aarch643aesNtB2_13Aarch64AesOpsNtNtB8_6traits7ArchOps22create_vector_from_u32Cs4dsW9QDrSvF_12no_std_tests
FNDA:14,_RNvXNtNtNtCs3YYFpeUFfny_8crc_fast4arch7aarch643aesNtB2_13Aarch64AesOpsNtNtB8_6traits7ArchOps22create_vector_from_u64Cs4dsW9QDrSvF_12no_std_tests
FNDA:4,_RNvXNtNtNtCs3YYFpeUFfny_8crc_fast4arch7aarch643aesNtB2_13Aarch64AesOpsNtNtB8_6traits7ArchOps12load_alignedCsiyVaUKbNjcY_10wasm_tests
FNDA:3,_RNvXNtNtNtCs3YYFpeUFfny_8crc_fast4arch7aarch643aesNtB2_13Aarch64AesOpsNtNtB8_6traits7ArchOps22create_vector_from_u32CsiyVaUKbNjcY_10wasm_tests
FNDA:9,_RNvXNtNtNtCs3YYFpeUFfny_8crc_fast4arch7aarch643aesNtB2_13Aarch64AesOpsNtNtB8_6traits7ArchOps22create_vector_from_u64CsiyVaUKbNjcY_10wasm_tests
FNF:31
FNH:26
DA:24,176807
DA:25,176807
DA:26,176807
DA:27,176807
DA:28,176807
DA:29,176807
DA:31,176807
DA:32,126311
DA:34,50496
DA:36,176807
DA:40,320192
DA:41,320192
DA:42,320192
DA:43,320192
DA:44,320192
DA:45,320192
DA:46,320192
DA:50,27196
DA:51,27196
DA:52,27196
DA:53,7763
DA:54,19433
DA:55,19433
DA:56,19433
DA:58,27196
DA:59,27196
DA:63,69848
DA:64,69848
DA:65,69848
DA:66,69848
DA:70,0
DA:71,0
DA:72,0
DA:73,0
DA:77,271642
DA:78,271642
DA:79,271642
DA:83,200365
DA:84,200365
DA:85,200365
DA:89,66928
DA:90,66928
DA:91,66928
DA:95,2831395
DA:96,2831395
DA:97,2831395
DA:101,30282
DA:102,30282
DA:103,30282
DA:104,30282
DA:105,30282
DA:106,30282
DA:107,30282
DA:108,30282
DA:109,30282
DA:113,45819
DA:114,45819
DA:115,45819
DA:119,30282
DA:120,30282
DA:121,30282
DA:125,10092
DA:126,10092
DA:127,10092
DA:131,49545
DA:132,49545
DA:133,49545
DA:137,0
DA:138,0
DA:139,0
DA:143,0
DA:144,0
DA:145,0
DA:149,42652
DA:150,42652
DA:151,42652
DA:152,19399
DA:153,19399
DA:154,23253
DA:155,23253
DA:156,23253
DA:157,23253
DA:158,42652
DA:159,42652
DA:163,38578
DA:164,38578
DA:165,38578
DA:169,0
DA:170,0
DA:171,0
DA:175,41823
DA:176,41823
DA:177,41823
DA:181,95
DA:182,95
DA:183,95
DA:187,85
DA:188,85
DA:189,85
DA:193,85
DA:194,85
DA:195,85
DA:199,19024
DA:200,19024
DA:201,19024
DA:205,22804
DA:206,22804
DA:207,22804
DA:208,22804
DA:209,22804
DA:213,4762113
DA:214,4762113
DA:215,4762113
DA:216,4762113
DA:218,4762113
DA:222,2481264
DA:223,2481264
DA:224,2481264
DA:225,2481264
DA:226,2481264
DA:230,2470518
DA:231,2470518
DA:232,2470518
DA:233,2470518
DA:235,2470518
DA:239,4746680
DA:240,4746680
DA:241,4746680
DA:242,4746680
DA:244,4746680
DA:248,0
DA:249,0
DA:250,0
DA:251,0
DA:252,0
DA:253,0
DA:254,0
DA:255,0
DA:261,496999
DA:262,496999
DA:263,496999
BRF:0
BRH:0
LF:141
LH:120
end_of_record
SF:/Users/mr.wolf/loadingalias/crc-fast-rust/src/arch/aarch64/aes_sha3.rs
FN:74,_RNvXs_NtNtNtCs3YYFpeUFfny_8crc_fast4arch7aarch648aes_sha3NtB4_17Aarch64AesSha3OpsNtNtBa_6traits7ArchOps12load_aligned
FN:124,_RNvXs_NtNtNtCs3YYFpeUFfny_8crc_fast4arch7aarch648aes_sha3NtB4_17Aarch64AesSha3OpsNtNtBa_6traits7ArchOps22create_vector_from_u32
FN:49,_RNvXs_NtNtNtCs3YYFpeUFfny_8crc_fast4arch7aarch648aes_sha3NtB4_17Aarch64AesSha3OpsNtNtBa_6traits7ArchOps22create_vector_from_u64
FN:19,_RNvMNtNtNtCs3YYFpeUFfny_8crc_fast4arch7aarch648aes_sha3NtB2_17Aarch64AesSha3Ops3new
FN:191,_RNvXs_NtNtNtCs3YYFpeUFfny_8crc_fast4arch7aarch648aes_sha3NtB4_17Aarch64AesSha3OpsNtNtBa_6traits7ArchOps12xor3_vectorsBa_
FN:69,_RNvXs_NtNtNtCs3YYFpeUFfny_8crc_fast4arch7aarch648aes_sha3NtB4_17Aarch64AesSha3OpsNtNtBa_6traits7ArchOps10load_bytes
FN:109,_RNvXs_NtNtNtCs3YYFpeUFfny_8crc_fast4arch7aarch648aes_sha3NtB4_17Aarch64AesSha3OpsNtNtBa_6traits7ArchOps11and_vectors
FN:64,_RNvXs_NtNtNtCs3YYFpeUFfny_8crc_fast4arch7aarch648aes_sha3NtB4_17Aarch64AesSha3OpsNtNtBa_6traits7ArchOps11xor_vectors
FN:54,_RNvXs_NtNtNtCs3YYFpeUFfny_8crc_fast4arch7aarch648aes_sha3NtB4_17Aarch64AesSha3OpsNtNtBa_6traits7ArchOps12extract_u64s
FN:129,_RNvXs_NtNtNtCs3YYFpeUFfny_8crc_fast4arch7aarch648aes_sha3NtB4_17Aarch64AesSha3OpsNtNtBa_6traits7ArchOps12shift_left_4
FN:94,_RNvXs_NtNtNtCs3YYFpeUFfny_8crc_fast4arch7aarch648aes_sha3NtB4_17Aarch64AesSha3OpsNtNtBa_6traits7ArchOps12shift_left_8
FN:164,_RNvXs_NtNtNtCs3YYFpeUFfny_8crc_fast4arch7aarch648aes_sha3NtB4_17Aarch64AesSha3OpsNtNtBa_6traits7ArchOps13shift_left_12
FN:144,_RNvXs_NtNtNtCs3YYFpeUFfny_8crc_fast4arch7aarch648aes_sha3NtB4_17Aarch64AesSha3OpsNtNtBa_6traits7ArchOps13shift_right_5
FN:149,_RNvXs_NtNtNtCs3YYFpeUFfny_8crc_fast4arch7aarch648aes_sha3NtB4_17Aarch64AesSha3OpsNtNtBa_6traits7ArchOps13shift_right_6
FN:154,_RNvXs_NtNtNtCs3YYFpeUFfny_8crc_fast4arch7aarch648aes_sha3NtB4_17Aarch64AesSha3OpsNtNtBa_6traits7ArchOps13shift_right_7
FN:139,_RNvXs_NtNtNtCs3YYFpeUFfny_8crc_fast4arch7aarch648aes_sha3NtB4_17Aarch64AesSha3OpsNtNtBa_6traits7ArchOps13shift_right_8
FN:79,_RNvXs_NtNtNtCs3YYFpeUFfny_8crc_fast4arch7aarch648aes_sha3NtB4_17Aarch64AesSha3OpsNtNtBa_6traits7ArchOps13shuffle_bytes
FN:159,_RNvXs_NtNtNtCs3YYFpeUFfny_8crc_fast4arch7aarch648aes_sha3NtB4_17Aarch64AesSha3OpsNtNtBa_6traits7ArchOps14shift_right_12
FN:169,_RNvXs_NtNtNtCs3YYFpeUFfny_8crc_fast4arch7aarch648aes_sha3NtB4_17Aarch64AesSha3OpsNtNtBa_6traits7ArchOps16carryless_mul_00
FN:174,_RNvXs_NtNtNtCs3YYFpeUFfny_8crc_fast4arch7aarch648aes_sha3NtB4_17Aarch64AesSha3OpsNtNtBa_6traits7ArchOps16carryless_mul_01
FN:179,_RNvXs_NtNtNtCs3YYFpeUFfny_8crc_fast4arch7aarch648aes_sha3NtB4_17Aarch64AesSha3OpsNtNtBa_6traits7ArchOps16carryless_mul_10
FN:184,_RNvXs_NtNtNtCs3YYFpeUFfny_8crc_fast4arch7aarch648aes_sha3NtB4_17Aarch64AesSha3OpsNtNtBa_6traits7ArchOps16carryless_mul_11
FN:40,_RNvXs_NtNtNtCs3YYFpeUFfny_8crc_fast4arch7aarch648aes_sha3NtB4_17Aarch64AesSha3OpsNtNtBa_6traits7ArchOps41create_vector_from_u64_pair_non_reflected
FN:30,_RNvXs_NtNtNtCs3YYFpeUFfny_8crc_fast4arch7aarch648aes_sha3NtB4_17Aarch64AesSha3OpsNtNtBa_6traits7ArchOps27create_vector_from_u64_pair
FN:84,_RNvXs_NtNtNtCs3YYFpeUFfny_8crc_fast4arch7aarch648aes_sha3NtB4_17Aarch64AesSha3OpsNtNtBa_6traits7ArchOps13blend_vectors
FN:99,_RNvXs_NtNtNtCs3YYFpeUFfny_8crc_fast4arch7aarch648aes_sha3NtB4_17Aarch64AesSha3OpsNtNtBa_6traits7ArchOps13set_all_bytes
FN:104,_RNvXs_NtNtNtCs3YYFpeUFfny_8crc_fast4arch7aarch648aes_sha3NtB4_17Aarch64AesSha3OpsNtNtBa_6traits7ArchOps19create_compare_mask
FN:69,_RNvXs_NtNtNtCscwG700SpbJM_8crc_fast4arch7aarch648aes_sha3NtB4_17Aarch64AesSha3OpsNtNtBa_6traits7ArchOps10load_bytes
FN:109,_RNvXs_NtNtNtCscwG700SpbJM_8crc_fast4arch7aarch648aes_sha3NtB4_17Aarch64AesSha3OpsNtNtBa_6traits7ArchOps11and_vectors
FN:64,_RNvXs_NtNtNtCscwG700SpbJM_8crc_fast4arch7aarch648aes_sha3NtB4_17Aarch64AesSha3OpsNtNtBa_6traits7ArchOps11xor_vectors
FN:54,_RNvXs_NtNtNtCscwG700SpbJM_8crc_fast4arch7aarch648aes_sha3NtB4_17Aarch64AesSha3OpsNtNtBa_6traits7ArchOps12extract_u64s
FN:74,_RNvXs_NtNtNtCscwG700SpbJM_8crc_fast4arch7aarch648aes_sha3NtB4_17Aarch64AesSha3OpsNtNtBa_6traits7ArchOps12load_aligned
FN:129,_RNvXs_NtNtNtCscwG700SpbJM_8crc_fast4arch7aarch648aes_sha3NtB4_17Aarch64AesSha3OpsNtNtBa_6traits7ArchOps12shift_left_4
FN:94,_RNvXs_NtNtNtCscwG700SpbJM_8crc_fast4arch7aarch648aes_sha3NtB4_17Aarch64AesSha3OpsNtNtBa_6traits7ArchOps12shift_left_8
FN:84,_RNvXs_NtNtNtCscwG700SpbJM_8crc_fast4arch7aarch648aes_sha3NtB4_17Aarch64AesSha3OpsNtNtBa_6traits7ArchOps13blend_vectors
FN:99,_RNvXs_NtNtNtCscwG700SpbJM_8crc_fast4arch7aarch648aes_sha3NtB4_17Aarch64AesSha3OpsNtNtBa_6traits7ArchOps13set_all_bytes
FN:164,_RNvXs_NtNtNtCscwG700SpbJM_8crc_fast4arch7aarch648aes_sha3NtB4_17Aarch64AesSha3OpsNtNtBa_6traits7ArchOps13shift_left_12
FN:139,_RNvXs_NtNtNtCscwG700SpbJM_8crc_fast4arch7aarch648aes_sha3NtB4_17Aarch64AesSha3OpsNtNtBa_6traits7ArchOps13shift_right_8
FN:79,_RNvXs_NtNtNtCscwG700SpbJM_8crc_fast4arch7aarch648aes_sha3NtB4_17Aarch64AesSha3OpsNtNtBa_6traits7ArchOps13shuffle_bytes
FN:159,_RNvXs_NtNtNtCscwG700SpbJM_8crc_fast4arch7aarch648aes_sha3NtB4_17Aarch64AesSha3OpsNtNtBa_6traits7ArchOps14shift_right_12
FN:169,_RNvXs_NtNtNtCscwG700SpbJM_8crc_fast4arch7aarch648aes_sha3NtB4_17Aarch64AesSha3OpsNtNtBa_6traits7ArchOps16carryless_mul_00
FN:174,_RNvXs_NtNtNtCscwG700SpbJM_8crc_fast4arch7aarch648aes_sha3NtB4_17Aarch64AesSha3OpsNtNtBa_6traits7ArchOps16carryless_mul_01
FN:179,_RNvXs_NtNtNtCscwG700SpbJM_8crc_fast4arch7aarch648aes_sha3NtB4_17Aarch64AesSha3OpsNtNtBa_6traits7ArchOps16carryless_mul_10
FN:184,_RNvXs_NtNtNtCscwG700SpbJM_8crc_fast4arch7aarch648aes_sha3NtB4_17Aarch64AesSha3OpsNtNtBa_6traits7ArchOps16carryless_mul_11
FN:104,_RNvXs_NtNtNtCscwG700SpbJM_8crc_fast4arch7aarch648aes_sha3NtB4_17Aarch64AesSha3OpsNtNtBa_6traits7ArchOps19create_compare_mask
FN:124,_RNvXs_NtNtNtCscwG700SpbJM_8crc_fast4arch7aarch648aes_sha3NtB4_17Aarch64AesSha3OpsNtNtBa_6traits7ArchOps22create_vector_from_u32
FN:49,_RNvXs_NtNtNtCscwG700SpbJM_8crc_fast4arch7aarch648aes_sha3NtB4_17Aarch64AesSha3OpsNtNtBa_6traits7ArchOps22create_vector_from_u64
FN:30,_RNvXs_NtNtNtCscwG700SpbJM_8crc_fast4arch7aarch648aes_sha3NtB4_17Aarch64AesSha3OpsNtNtBa_6traits7ArchOps27create_vector_from_u64_pair
FN:40,_RNvXs_NtNtNtCscwG700SpbJM_8crc_fast4arch7aarch648aes_sha3NtB4_17Aarch64AesSha3OpsNtNtBa_6traits7ArchOps41create_vector_from_u64_pair_non_reflected
FN:144,_RNvXs_NtNtNtCscwG700SpbJM_8crc_fast4arch7aarch648aes_sha3NtB4_17Aarch64AesSha3OpsNtNtBa_6traits7ArchOps13shift_right_5
FN:149,_RNvXs_NtNtNtCscwG700SpbJM_8crc_fast4arch7aarch648aes_sha3NtB4_17Aarch64AesSha3OpsNtNtBa_6traits7ArchOps13shift_right_6
FN:154,_RNvXs_NtNtNtCscwG700SpbJM_8crc_fast4arch7aarch648aes_sha3NtB4_17Aarch64AesSha3OpsNtNtBa_6traits7ArchOps13shift_right_7
FN:119,_RNvXs_NtNtNtCscwG700SpbJM_8crc_fast4arch7aarch648aes_sha3NtB4_17Aarch64AesSha3OpsNtNtBa_6traits7ArchOps13shift_left_32
FN:134,_RNvXs_NtNtNtCscwG700SpbJM_8crc_fast4arch7aarch648aes_sha3NtB4_17Aarch64AesSha3OpsNtNtBa_6traits7ArchOps13shift_right_4
FN:114,_RNvXs_NtNtNtCscwG700SpbJM_8crc_fast4arch7aarch648aes_sha3NtB4_17Aarch64AesSha3OpsNtNtBa_6traits7ArchOps14shift_right_32
FN:59,_RNvXs_NtNtNtCscwG700SpbJM_8crc_fast4arch7aarch648aes_sha3NtB4_17Aarch64AesSha3OpsNtNtBa_6traits7ArchOps15extract_poly64s
FN:191,_RNvXs_NtNtNtCscwG700SpbJM_8crc_fast4arch7aarch648aes_sha3NtB4_17Aarch64AesSha3OpsNtNtBa_6traits7ArchOps12xor3_vectorsBa_
FN:19,_RNvMNtNtNtCscwG700SpbJM_8crc_fast4arch7aarch648aes_sha3NtB2_17Aarch64AesSha3Ops3new
FN:119,_RNvXs_NtNtNtCs3YYFpeUFfny_8crc_fast4arch7aarch648aes_sha3NtB4_17Aarch64AesSha3OpsNtNtBa_6traits7ArchOps13shift_left_32
FN:134,_RNvXs_NtNtNtCs3YYFpeUFfny_8crc_fast4arch7aarch648aes_sha3NtB4_17Aarch64AesSha3OpsNtNtBa_6traits7ArchOps13shift_right_4
FN:114,_RNvXs_NtNtNtCs3YYFpeUFfny_8crc_fast4arch7aarch648aes_sha3NtB4_17Aarch64AesSha3OpsNtNtBa_6traits7ArchOps14shift_right_32
FN:59,_RNvXs_NtNtNtCs3YYFpeUFfny_8crc_fast4arch7aarch648aes_sha3NtB4_17Aarch64AesSha3OpsNtNtBa_6traits7ArchOps15extract_poly64s
FNDA:27,_RNvXs_NtNtNtCs3YYFpeUFfny_8crc_fast4arch7aarch648aes_sha3NtB4_17Aarch64AesSha3OpsNtNtBa_6traits7ArchOps12load_aligned
FNDA:6,_RNvXs_NtNtNtCs3YYFpeUFfny_8crc_fast4arch7aarch648aes_sha3NtB4_17Aarch64AesSha3OpsNtNtBa_6traits7ArchOps22create_vector_from_u32
FNDA:24,_RNvXs_NtNtNtCs3YYFpeUFfny_8crc_fast4arch7aarch648aes_sha3NtB4_17Aarch64AesSha3OpsNtNtBa_6traits7ArchOps22create_vector_from_u64
FNDA:3,_RNvMNtNtNtCs3YYFpeUFfny_8crc_fast4arch7aarch648aes_sha3NtB2_17Aarch64AesSha3Ops3new
FNDA:531,_RNvXs_NtNtNtCs3YYFpeUFfny_8crc_fast4arch7aarch648aes_sha3NtB4_17Aarch64AesSha3OpsNtNtBa_6traits7ArchOps12xor3_vectorsBa_
FNDA:68,_RNvXs_NtNtNtCs3YYFpeUFfny_8crc_fast4arch7aarch648aes_sha3NtB4_17Aarch64AesSha3OpsNtNtBa_6traits7ArchOps10load_bytes
FNDA:9,_RNvXs_NtNtNtCs3YYFpeUFfny_8crc_fast4arch7aarch648aes_sha3NtB4_17Aarch64AesSha3OpsNtNtBa_6traits7ArchOps11and_vectors
FNDA:91,_RNvXs_NtNtNtCs3YYFpeUFfny_8crc_fast4arch7aarch648aes_sha3NtB4_17Aarch64AesSha3OpsNtNtBa_6traits7ArchOps11xor_vectors
FNDA:30,_RNvXs_NtNtNtCs3YYFpeUFfny_8crc_fast4arch7aarch648aes_sha3NtB4_17Aarch64AesSha3OpsNtNtBa_6traits7ArchOps12extract_u64s
FNDA:12,_RNvXs_NtNtNtCs3YYFpeUFfny_8crc_fast4arch7aarch648aes_sha3NtB4_17Aarch64AesSha3OpsNtNtBa_6traits7ArchOps12shift_left_4
FNDA:29,_RNvXs_NtNtNtCs3YYFpeUFfny_8crc_fast4arch7aarch648aes_sha3NtB4_17Aarch64AesSha3OpsNtNtBa_6traits7ArchOps12shift_left_8
FNDA:0,_RNvXs_NtNtNtCs3YYFpeUFfny_8crc_fast4arch7aarch648aes_sha3NtB4_17Aarch64AesSha3OpsNtNtBa_6traits7ArchOps13shift_left_12
FNDA:0,_RNvXs_NtNtNtCs3YYFpeUFfny_8crc_fast4arch7aarch648aes_sha3NtB4_17Aarch64AesSha3OpsNtNtBa_6traits7ArchOps13shift_right_5
FNDA:0,_RNvXs_NtNtNtCs3YYFpeUFfny_8crc_fast4arch7aarch648aes_sha3NtB4_17Aarch64AesSha3OpsNtNtBa_6traits7ArchOps13shift_right_6
FNDA:0,_RNvXs_NtNtNtCs3YYFpeUFfny_8crc_fast4arch7aarch648aes_sha3NtB4_17Aarch64AesSha3OpsNtNtBa_6traits7ArchOps13shift_right_7
FNDA:14,_RNvXs_NtNtNtCs3YYFpeUFfny_8crc_fast4arch7aarch648aes_sha3NtB4_17Aarch64AesSha3OpsNtNtBa_6traits7ArchOps13shift_right_8
FNDA:43,_RNvXs_NtNtNtCs3YYFpeUFfny_8crc_fast4arch7aarch648aes_sha3NtB4_17Aarch64AesSha3OpsNtNtBa_6traits7ArchOps13shuffle_bytes
FNDA:6,_RNvXs_NtNtNtCs3YYFpeUFfny_8crc_fast4arch7aarch648aes_sha3NtB4_17Aarch64AesSha3OpsNtNtBa_6traits7ArchOps14shift_right_12
FNDA:531,_RNvXs_NtNtNtCs3YYFpeUFfny_8crc_fast4arch7aarch648aes_sha3NtB4_17Aarch64AesSha3OpsNtNtBa_6traits7ArchOps16carryless_mul_00
FNDA:32,_RNvXs_NtNtNtCs3YYFpeUFfny_8crc_fast4arch7aarch648aes_sha3NtB4_17Aarch64AesSha3OpsNtNtBa_6traits7ArchOps16carryless_mul_01
FNDA:26,_RNvXs_NtNtNtCs3YYFpeUFfny_8crc_fast4arch7aarch648aes_sha3NtB4_17Aarch64AesSha3OpsNtNtBa_6traits7ArchOps16carryless_mul_10
FNDA:520,_RNvXs_NtNtNtCs3YYFpeUFfny_8crc_fast4arch7aarch648aes_sha3NtB4_17Aarch64AesSha3OpsNtNtBa_6traits7ArchOps16carryless_mul_11
FNDA:18,_RNvXs_NtNtNtCs3YYFpeUFfny_8crc_fast4arch7aarch648aes_sha3NtB4_17Aarch64AesSha3OpsNtNtBa_6traits7ArchOps41create_vector_from_u64_pair_non_reflected
FNDA:48,_RNvXs_NtNtNtCs3YYFpeUFfny_8crc_fast4arch7aarch648aes_sha3NtB4_17Aarch64AesSha3OpsNtNtBa_6traits7ArchOps27create_vector_from_u64_pair
FNDA:0,_RNvXs_NtNtNtCs3YYFpeUFfny_8crc_fast4arch7aarch648aes_sha3NtB4_17Aarch64AesSha3OpsNtNtBa_6traits7ArchOps13blend_vectors
FNDA:0,_RNvXs_NtNtNtCs3YYFpeUFfny_8crc_fast4arch7aarch648aes_sha3NtB4_17Aarch64AesSha3OpsNtNtBa_6traits7ArchOps13set_all_bytes
FNDA:0,_RNvXs_NtNtNtCs3YYFpeUFfny_8crc_fast4arch7aarch648aes_sha3NtB4_17Aarch64AesSha3OpsNtNtBa_6traits7ArchOps19create_compare_mask
FNDA:200297,_RNvXs_NtNtNtCscwG700SpbJM_8crc_fast4arch7aarch648aes_sha3NtB4_17Aarch64AesSha3OpsNtNtBa_6traits7ArchOps10load_bytes
FNDA:49536,_RNvXs_NtNtNtCscwG700SpbJM_8crc_fast4arch7aarch648aes_sha3NtB4_17Aarch64AesSha3OpsNtNtBa_6traits7ArchOps11and_vectors
FNDA:271551,_RNvXs_NtNtNtCscwG700SpbJM_8crc_fast4arch7aarch648aes_sha3NtB4_17Aarch64AesSha3OpsNtNtBa_6traits7ArchOps11xor_vectors
FNDA:69818,_RNvXs_NtNtNtCscwG700SpbJM_8crc_fast4arch7aarch648aes_sha3NtB4_17Aarch64AesSha3OpsNtNtBa_6traits7ArchOps12extract_u64s
FNDA:66901,_RNvXs_NtNtNtCscwG700SpbJM_8crc_fast4arch7aarch648aes_sha3NtB4_17Aarch64AesSha3OpsNtNtBa_6traits7ArchOps12load_aligned
FNDA:38566,_RNvXs_NtNtNtCscwG700SpbJM_8crc_fast4arch7aarch648aes_sha3NtB4_17Aarch64AesSha3OpsNtNtBa_6traits7ArchOps12shift_left_4
FNDA:45790,_RNvXs_NtNtNtCscwG700SpbJM_8crc_fast4arch7aarch648aes_sha3NtB4_17Aarch64AesSha3OpsNtNtBa_6traits7ArchOps12shift_left_8
FNDA:30282,_RNvXs_NtNtNtCscwG700SpbJM_8crc_fast4arch7aarch648aes_sha3NtB4_17Aarch64AesSha3OpsNtNtBa_6traits7ArchOps13blend_vectors
FNDA:30282,_RNvXs_NtNtNtCscwG700SpbJM_8crc_fast4arch7aarch648aes_sha3NtB4_17Aarch64AesSha3OpsNtNtBa_6traits7ArchOps13set_all_bytes
FNDA:22804,_RNvXs_NtNtNtCscwG700SpbJM_8crc_fast4arch7aarch648aes_sha3NtB4_17Aarch64AesSha3OpsNtNtBa_6traits7ArchOps13shift_left_12
FNDA:41809,_RNvXs_NtNtNtCscwG700SpbJM_8crc_fast4arch7aarch648aes_sha3NtB4_17Aarch64AesSha3OpsNtNtBa_6traits7ArchOps13shift_right_8
FNDA:2831352,_RNvXs_NtNtNtCscwG700SpbJM_8crc_fast4arch7aarch648aes_sha3NtB4_17Aarch64AesSha3OpsNtNtBa_6traits7ArchOps13shuffle_bytes
FNDA:19018,_RNvXs_NtNtNtCscwG700SpbJM_8crc_fast4arch7aarch648aes_sha3NtB4_17Aarch64AesSha3OpsNtNtBa_6traits7ArchOps14shift_right_12
FNDA:4761582,_RNvXs_NtNtNtCscwG700SpbJM_8crc_fast4arch7aarch648aes_sha3NtB4_17Aarch64AesSha3OpsNtNtBa_6traits7ArchOps16carryless_mul_00
FNDA:2481232,_RNvXs_NtNtNtCscwG700SpbJM_8crc_fast4arch7aarch648aes_sha3NtB4_17Aarch64AesSha3OpsNtNtBa_6traits7ArchOps16carryless_mul_01
FNDA:2470492,_RNvXs_NtNtNtCscwG700SpbJM_8crc_fast4arch7aarch648aes_sha3NtB4_17Aarch64AesSha3OpsNtNtBa_6traits7ArchOps16carryless_mul_10
FNDA:4746160,_RNvXs_NtNtNtCscwG700SpbJM_8crc_fast4arch7aarch648aes_sha3NtB4_17Aarch64AesSha3OpsNtNtBa_6traits7ArchOps16carryless_mul_11
FNDA:10092,_RNvXs_NtNtNtCscwG700SpbJM_8crc_fast4arch7aarch648aes_sha3NtB4_17Aarch64AesSha3OpsNtNtBa_6traits7ArchOps19create_compare_mask
FNDA:42646,_RNvXs_NtNtNtCscwG700SpbJM_8crc_fast4arch7aarch648aes_sha3NtB4_17Aarch64AesSha3OpsNtNtBa_6traits7ArchOps22create_vector_from_u32
FNDA:27172,_RNvXs_NtNtNtCscwG700SpbJM_8crc_fast4arch7aarch648aes_sha3NtB4_17Aarch64AesSha3OpsNtNtBa_6traits7ArchOps22create_vector_from_u64
FNDA:176759,_RNvXs_NtNtNtCscwG700SpbJM_8crc_fast4arch7aarch648aes_sha3NtB4_17Aarch64AesSha3OpsNtNtBa_6traits7ArchOps27create_vector_from_u64_pair
FNDA:320174,_RNvXs_NtNtNtCscwG700SpbJM_8crc_fast4arch7aarch648aes_sha3NtB4_17Aarch64AesSha3OpsNtNtBa_6traits7ArchOps41create_vector_from_u64_pair_non_reflected
FNDA:95,_RNvXs_NtNtNtCscwG700SpbJM_8crc_fast4arch7aarch648aes_sha3NtB4_17Aarch64AesSha3OpsNtNtBa_6traits7ArchOps13shift_right_5
FNDA:85,_RNvXs_NtNtNtCscwG700SpbJM_8crc_fast4arch7aarch648aes_sha3NtB4_17Aarch64AesSha3OpsNtNtBa_6traits7ArchOps13shift_right_6
FNDA:85,_RNvXs_NtNtNtCscwG700SpbJM_8crc_fast4arch7aarch648aes_sha3NtB4_17Aarch64AesSha3OpsNtNtBa_6traits7ArchOps13shift_right_7
FNDA:0,_RNvXs_NtNtNtCscwG700SpbJM_8crc_fast4arch7aarch648aes_sha3NtB4_17Aarch64AesSha3OpsNtNtBa_6traits7ArchOps13shift_left_32
FNDA:0,_RNvXs_NtNtNtCscwG700SpbJM_8crc_fast4arch7aarch648aes_sha3NtB4_17Aarch64AesSha3OpsNtNtBa_6traits7ArchOps13shift_right_4
FNDA:0,_RNvXs_NtNtNtCscwG700SpbJM_8crc_fast4arch7aarch648aes_sha3NtB4_17Aarch64AesSha3OpsNtNtBa_6traits7ArchOps14shift_right_32
FNDA:0,_RNvXs_NtNtNtCscwG700SpbJM_8crc_fast4arch7aarch648aes_sha3NtB4_17Aarch64AesSha3OpsNtNtBa_6traits7ArchOps15extract_poly64s
FNDA:7124714,_RNvXs_NtNtNtCscwG700SpbJM_8crc_fast4arch7aarch648aes_sha3NtB4_17Aarch64AesSha3OpsNtNtBa_6traits7ArchOps12xor3_vectorsBa_
FNDA:1,_RNvMNtNtNtCscwG700SpbJM_8crc_fast4arch7aarch648aes_sha3NtB2_17Aarch64AesSha3Ops3new
FNDA:0,_RNvXs_NtNtNtCs3YYFpeUFfny_8crc_fast4arch7aarch648aes_sha3NtB4_17Aarch64AesSha3OpsNtNtBa_6traits7ArchOps13shift_left_32
FNDA:0,_RNvXs_NtNtNtCs3YYFpeUFfny_8crc_fast4arch7aarch648aes_sha3NtB4_17Aarch64AesSha3OpsNtNtBa_6traits7ArchOps13shift_right_4
FNDA:0,_RNvXs_NtNtNtCs3YYFpeUFfny_8crc_fast4arch7aarch648aes_sha3NtB4_17Aarch64AesSha3OpsNtNtBa_6traits7ArchOps14shift_right_32
FNDA:0,_RNvXs_NtNtNtCs3YYFpeUFfny_8crc_fast4arch7aarch648aes_sha3NtB4_17Aarch64AesSha3OpsNtNtBa_6traits7ArchOps15extract_poly64s
FNF:31
FNH:27
DA:19,4
DA:20,4
DA:21,4
DA:30,176807
DA:31,176807
DA:32,176807
DA:33,176807
DA:34,176807
DA:35,176807
DA:36,176807
DA:37,176807
DA:40,320192
DA:41,320192
DA:42,320192
DA:43,320192
DA:44,320192
DA:45,320192
DA:46,320192
DA:49,27196
DA:50,27196
DA:51,27196
DA:54,69848
DA:55,69848
DA:56,69848
DA:59,0
DA:60,0
DA:61,0
DA:64,271642
DA:65,271642
DA:66,271642
DA:69,200365
DA:70,200365
DA:71,200365
DA:74,66928
DA:75,66928
DA:76,66928
DA:79,2831395
DA:80,2831395
DA:81,2831395
DA:84,30282
DA:85,30282
DA:86,30282
DA:87,30282
DA:88,30282
DA:89,30282
DA:90,30282
DA:91,30282
DA:94,45819
DA:95,45819
DA:96,45819
DA:99,30282
DA:100,30282
DA:101,30282
DA:104,10092
DA:105,10092
DA:106,10092
DA:109,49545
DA:110,49545
DA:111,49545
DA:114,0
DA:115,0
DA:116,0
DA:119,0
DA:120,0
DA:121,0
DA:124,42652
DA:125,42652
DA:126,42652
DA:129,38578
DA:130,38578
DA:131,38578
DA:134,0
DA:135,0
DA:136,0
DA:139,41823
DA:140,41823
DA:141,41823
DA:144,95
DA:145,95
DA:146,95
DA:149,85
DA:150,85
DA:151,85
DA:154,85
DA:155,85
DA:156,85
DA:159,19024
DA:160,19024
DA:161,19024
DA:164,22804
DA:165,22804
DA:166,22804
DA:169,4762113
DA:170,4762113
DA:171,4762113
DA:174,2481264
DA:175,2481264
DA:176,2481264
DA:179,2470518
DA:180,2470518
DA:181,2470518
DA:184,4746680
DA:185,4746680
DA:186,4746680
DA:191,7125245
DA:192,7125245
DA:193,7125245
DA:194,7125245
DA:195,7125245
DA:196,7125245
DA:199,7125245
DA:200,7125245
BRF:0
BRH:0
LF:112
LH:100
end_of_record
SF:/Users/mr.wolf/loadingalias/crc-fast-rust/src/arch/mod.rs
FN:74,_RNvNtCs3YYFpeUFfny_8crc_fast4arch18update_aarch64_aesB3_
FN:90,_RNvNtCs3YYFpeUFfny_8crc_fast4arch23update_aarch64_aes_sha3B3_
FN:35,_RNvNtCs3YYFpeUFfny_8crc_fast4arch6update
FN:74,_RNvNtCs3YYFpeUFfny_8crc_fast4arch18update_aarch64_aesCsa96wfuC4ae_8checksum
FN:90,_RNvNtCs3YYFpeUFfny_8crc_fast4arch23update_aarch64_aes_sha3Csa96wfuC4ae_8checksum
FN:74,_RNvNtCs3YYFpeUFfny_8crc_fast4arch18update_aarch64_aesCseaXugnuoQ7h_8checksum
FN:90,_RNvNtCs3YYFpeUFfny_8crc_fast4arch23update_aarch64_aes_sha3CseaXugnuoQ7h_8checksum
FN:35,_RNvNtCscwG700SpbJM_8crc_fast4arch6update
FN:74,_RNvNtCscwG700SpbJM_8crc_fast4arch18update_aarch64_aesB3_
FN:90,_RNvNtCscwG700SpbJM_8crc_fast4arch23update_aarch64_aes_sha3B3_
FN:400,_RNvNtNtCscwG700SpbJM_8crc_fast4arch5tests11test_length
FN:214,_RNvNtNtCscwG700SpbJM_8crc_fast4arch5testss_15test_256_string
FN:236,_RNvNtNtCscwG700SpbJM_8crc_fast4arch5testss_15test_512_string
FN:260,_RNvNtNtCscwG700SpbJM_8crc_fast4arch5testss_16test_1024_string
FN:194,_RNvNtNtCscwG700SpbJM_8crc_fast4arch5testss_16test_check_value
FN:390,_RNvNtNtCscwG700SpbJM_8crc_fast4arch5testss_18test_large_lengths
FN:376,_RNvNtNtCscwG700SpbJM_8crc_fast4arch5testss_19test_medium_lengths
FN:362,_RNvNtNtCscwG700SpbJM_8crc_fast4arch5testss_22test_small_lengths_all
FN:334,_RNvNtNtCscwG700SpbJM_8crc_fast4arch5testss_31test_crc32_php_standard_vectors
FN:286,_RNvNtNtCscwG700SpbJM_8crc_fast4arch5testss_32test_crc64_nvme_standard_vectors
FN:74,_RNvNtCs3YYFpeUFfny_8crc_fast4arch18update_aarch64_aesCs4dsW9QDrSvF_12no_std_tests
FN:90,_RNvNtCs3YYFpeUFfny_8crc_fast4arch23update_aarch64_aes_sha3Cs4dsW9QDrSvF_12no_std_tests
FN:74,_RNvNtCs3YYFpeUFfny_8crc_fast4arch18update_aarch64_aesCsiyVaUKbNjcY_10wasm_tests
FN:90,_RNvNtCs3YYFpeUFfny_8crc_fast4arch23update_aarch64_aes_sha3CsiyVaUKbNjcY_10wasm_tests
FNDA:0,_RNvNtCs3YYFpeUFfny_8crc_fast4arch18update_aarch64_aesB3_
FNDA:0,_RNvNtCs3YYFpeUFfny_8crc_fast4arch23update_aarch64_aes_sha3B3_
FNDA:31,_RNvNtCs3YYFpeUFfny_8crc_fast4arch6update
FNDA:0,_RNvNtCs3YYFpeUFfny_8crc_fast4arch18update_aarch64_aesCsa96wfuC4ae_8checksum
FNDA:0,_RNvNtCs3YYFpeUFfny_8crc_fast4arch23update_aarch64_aes_sha3Csa96wfuC4ae_8checksum
FNDA:0,_RNvNtCs3YYFpeUFfny_8crc_fast4arch18update_aarch64_aesCseaXugnuoQ7h_8checksum
FNDA:0,_RNvNtCs3YYFpeUFfny_8crc_fast4arch23update_aarch64_aes_sha3CseaXugnuoQ7h_8checksum
FNDA:37393,_RNvNtCscwG700SpbJM_8crc_fast4arch6update
FNDA:0,_RNvNtCscwG700SpbJM_8crc_fast4arch18update_aarch64_aesB3_
FNDA:37365,_RNvNtCscwG700SpbJM_8crc_fast4arch23update_aarch64_aes_sha3B3_
FNDA:19532,_RNvNtNtCscwG700SpbJM_8crc_fast4arch5tests11test_length
FNDA:1,_RNvNtNtCscwG700SpbJM_8crc_fast4arch5testss_15test_256_string
FNDA:1,_RNvNtNtCscwG700SpbJM_8crc_fast4arch5testss_15test_512_string
FNDA:1,_RNvNtNtCscwG700SpbJM_8crc_fast4arch5testss_16test_1024_string
FNDA:1,_RNvNtNtCscwG700SpbJM_8crc_fast4arch5testss_16test_check_value
FNDA:1,_RNvNtNtCscwG700SpbJM_8crc_fast4arch5testss_18test_large_lengths
FNDA:1,_RNvNtNtCscwG700SpbJM_8crc_fast4arch5testss_19test_medium_lengths
FNDA:1,_RNvNtNtCscwG700SpbJM_8crc_fast4arch5testss_22test_small_lengths_all
FNDA:1,_RNvNtNtCscwG700SpbJM_8crc_fast4arch5testss_31test_crc32_php_standard_vectors
FNDA:1,_RNvNtNtCscwG700SpbJM_8crc_fast4arch5testss_32test_crc64_nvme_standard_vectors
FNDA:0,_RNvNtCs3YYFpeUFfny_8crc_fast4arch18update_aarch64_aesCs4dsW9QDrSvF_12no_std_tests
FNDA:17,_RNvNtCs3YYFpeUFfny_8crc_fast4arch23update_aarch64_aes_sha3Cs4dsW9QDrSvF_12no_std_tests
FNDA:0,_RNvNtCs3YYFpeUFfny_8crc_fast4arch18update_aarch64_aesCsiyVaUKbNjcY_10wasm_tests
FNDA:12,_RNvNtCs3YYFpeUFfny_8crc_fast4arch23update_aarch64_aes_sha3CsiyVaUKbNjcY_10wasm_tests
FNF:13
FNH:12
DA:35,37424
DA:37,37394
DA:38,37424
DA:40,30
DA:42,30
DA:43,37394
DA:47,37394
DA:48,37394
DA:49,0
DA:52,0
DA:53,0
DA:57,0
DA:58,0
DA:59,0
DA:60,0
DA:61,0
DA:62,0
DA:63,0
DA:66,0
DA:69,37424
DA:74,0
DA:75,0
DA:76,0
DA:77,0
DA:78,0
DA:79,0
DA:80,0
DA:81,0
DA:82,0
DA:83,0
DA:85,0
DA:90,37394
DA:91,37394
DA:92,37394
DA:93,37394
DA:94,37394
DA:95,37394
DA:96,37394
DA:97,14570
DA:98,22824
DA:99,0
DA:101,37394
DA:194,1
DA:195,20
DA:197,19
DA:198,19
DA:199,19
DA:202,19
DA:204,19
DA:205,0
DA:206,0
DA:207,0
DA:211,1
DA:214,1
DA:215,20
DA:216,19
DA:217,19
DA:218,19
DA:219,19
DA:220,19
DA:221,19
DA:224,19
DA:226,19
DA:227,0
DA:228,0
DA:229,0
DA:233,1
DA:236,1
DA:237,1
DA:239,20
DA:240,19
DA:241,19
DA:242,19
DA:243,19
DA:244,19
DA:245,19
DA:248,19
DA:250,19
DA:251,0
DA:252,0
DA:253,0
DA:257,1
DA:260,1
DA:261,1
DA:263,20
DA:264,19
DA:265,19
DA:266,19
DA:267,19
DA:268,19
DA:269,19
DA:272,19
DA:274,19
DA:275,0
DA:276,0
DA:277,0
DA:281,1
DA:286,1
DA:315,15
DA:317,14
DA:319,14
DA:321,0
DA:326,1
DA:334,1
DA:342,5
DA:343,4
DA:344,4
DA:348,4
DA:350,4
DA:351,4
DA:352,0
DA:356,1
DA:362,1
DA:364,20
DA:366,4883
DA:367,4864
DA:368,4864
DA:370,1
DA:376,1
DA:378,20
DA:380,14630
DA:381,14611
DA:382,14611
DA:384,1
DA:390,1
DA:392,20
DA:394,76
DA:395,57
DA:396,57
DA:398,1
DA:400,19532
DA:401,19532
DA:402,19532
DA:405,19532
DA:408,19532
DA:409,19532
DA:411,19532
DA:414,0
DA:415,0
DA:420,19532
BRF:0
BRH:0
LF:140
LH:101
end_of_record
SF:/Users/mr.wolf/loadingalias/crc-fast-rust/src/arch/software.rs
FN:363,_RNvNtNtCs3YYFpeUFfny_8crc_fast4arch8software10update_u32
FN:381,_RNvNtNtCs3YYFpeUFfny_8crc_fast4arch8software10update_u64
FN:133,_RNvNtNtCs3YYFpeUFfny_8crc_fast4arch8software6update
FN:174,_RNCNvNtNtCs3YYFpeUFfny_8crc_fast4arch8software6update0B7_
FN:283,_RNCNvNtNtCs3YYFpeUFfny_8crc_fast4arch8software6updates_0B7_
FN:363,_RNvNtNtCscwG700SpbJM_8crc_fast4arch8software10update_u32
FN:381,_RNvNtNtCscwG700SpbJM_8crc_fast4arch8software10update_u64
FN:133,_RNvNtNtCscwG700SpbJM_8crc_fast4arch8software6update
FN:174,_RNCNvNtNtCscwG700SpbJM_8crc_fast4arch8software6update0B7_
FN:283,_RNCNvNtNtCscwG700SpbJM_8crc_fast4arch8software6updates_0B7_
FNDA:2,_RNvNtNtCs3YYFpeUFfny_8crc_fast4arch8software10update_u32
FNDA:0,_RNvNtNtCs3YYFpeUFfny_8crc_fast4arch8software10update_u64
FNDA:2,_RNvNtNtCs3YYFpeUFfny_8crc_fast4arch8software6update
FNDA:2,_RNCNvNtNtCs3YYFpeUFfny_8crc_fast4arch8software6update0B7_
FNDA:0,_RNCNvNtNtCs3YYFpeUFfny_8crc_fast4arch8software6updates_0B7_
FNDA:14,_RNvNtNtCscwG700SpbJM_8crc_fast4arch8software10update_u32
FNDA:14,_RNvNtNtCscwG700SpbJM_8crc_fast4arch8software10update_u64
FNDA:28,_RNvNtNtCscwG700SpbJM_8crc_fast4arch8software6update
FNDA:1,_RNCNvNtNtCscwG700SpbJM_8crc_fast4arch8software6update0B7_
FNDA:1,_RNCNvNtNtCscwG700SpbJM_8crc_fast4arch8software6updates_0B7_
FNF:5
FNH:5
DA:133,30
DA:134,30
DA:136,16
DA:137,0
DA:138,0
DA:139,0
DA:140,0
DA:141,0
DA:142,0
DA:143,0
DA:144,0
DA:145,0
DA:146,0
DA:147,0
DA:148,0
DA:149,16
DA:150,0
DA:153,16
DA:154,0
DA:162,16
DA:163,16
DA:164,16
DA:165,16
DA:166,16
DA:167,16
DA:168,16
DA:169,16
DA:173,16
DA:174,16
DA:175,16
DA:177,16
DA:178,12
DA:179,4
DA:181,4
DA:182,4
DA:183,4
DA:184,4
DA:185,4
DA:186,4
DA:187,4
DA:188,4
DA:189,4
DA:190,4
DA:191,4
DA:192,4
DA:193,4
DA:194,4
DA:195,4
DA:250,14
DA:251,0
DA:252,0
DA:253,0
DA:254,0
DA:255,0
DA:256,0
DA:257,0
DA:258,14
DA:259,0
DA:262,14
DA:263,0
DA:271,14
DA:272,14
DA:273,14
DA:274,14
DA:275,14
DA:276,14
DA:277,14
DA:278,14
DA:282,14
DA:283,14
DA:284,14
DA:286,14
DA:287,12
DA:288,2
DA:290,2
DA:291,2
DA:292,2
DA:293,2
DA:294,2
DA:295,2
DA:296,2
DA:297,2
DA:298,2
DA:299,2
DA:300,2
DA:301,2
DA:302,2
DA:303,2
DA:304,2
DA:358,0
DA:360,30
DA:363,16
DA:365,16
DA:366,9
DA:368,7
DA:371,16
DA:372,16
DA:374,16
DA:377,16
DA:378,16
DA:381,14
DA:383,14
DA:384,7
DA:386,7
DA:389,14
DA:390,14
DA:393,14
DA:394,14
BRF:0
BRH:0
LF:110
LH:86
end_of_record
SF:/Users/mr.wolf/loadingalias/crc-fast-rust/src/bin/arch-check.rs
FN:102,_RNvCs8BF9bUJsOZf_10arch_check13print_targets
FN:125,_RNvCs8BF9bUJsOZf_10arch_check14print_cpu_info
FN:28,_RNvCs8BF9bUJsOZf_10arch_check16aarch64_features
FN:14,_RNvCs8BF9bUJsOZf_10arch_check4main
FN:102,_RNvCs1Xhj9JE1iFz_10arch_check13print_targets
FN:125,_RNvCs1Xhj9JE1iFz_10arch_check14print_cpu_info
FN:28,_RNvCs1Xhj9JE1iFz_10arch_check16aarch64_features
FN:14,_RNvCs1Xhj9JE1iFz_10arch_check4main
FNDA:0,_RNvCs8BF9bUJsOZf_10arch_check13print_targets
FNDA:0,_RNvCs8BF9bUJsOZf_10arch_check14print_cpu_info
FNDA:0,_RNvCs8BF9bUJsOZf_10arch_check16aarch64_features
FNDA:0,_RNvCs8BF9bUJsOZf_10arch_check4main
FNDA:0,_RNvCs1Xhj9JE1iFz_10arch_check13print_targets
FNDA:0,_RNvCs1Xhj9JE1iFz_10arch_check14print_cpu_info
FNDA:0,_RNvCs1Xhj9JE1iFz_10arch_check16aarch64_features
FNDA:0,_RNvCs1Xhj9JE1iFz_10arch_check4main
FNF:4
FNH:0
DA:14,0
DA:17,0
DA:22,0
DA:24,0
DA:25,0
DA:28,0
DA:29,0
DA:31,0
DA:33,0
DA:34,0
DA:35,0
DA:36,0
DA:37,0
DA:39,0
DA:40,0
DA:41,0
DA:42,0
DA:43,0
DA:45,0
DA:46,0
DA:47,0
DA:48,0
DA:49,0
DA:50,0
DA:102,0
DA:103,0
DA:105,0
DA:107,0
DA:108,0
DA:110,0
DA:112,0
DA:113,0
DA:115,0
DA:117,0
DA:118,0
DA:120,0
DA:122,0
DA:125,0
DA:126,0
DA:127,0
DA:129,0
DA:130,0
DA:131,0
DA:132,0
DA:133,0
DA:134,0
DA:135,0
DA:136,0
DA:137,0
BRF:0
BRH:0
LF:49
LH:0
end_of_record
SF:/Users/mr.wolf/loadingalias/crc-fast-rust/src/bin/checksum.rs
FN:213,_RNvCsa96wfuC4ae_8checksum10parse_args
FN:186,_RNvCsa96wfuC4ae_8checksum11print_usage
FN:374,_RNvCsa96wfuC4ae_8checksum13run_benchmark
FN:349,_RNvCsa96wfuC4ae_8checksum18calculate_checksum
FN:158,_RNvCsa96wfuC4ae_8checksum18fill_pseudo_randomB1_
FN:169,_RNvCsa96wfuC4ae_8checksum20generate_random_data
FN:421,_RNvCsa96wfuC4ae_8checksum25display_benchmark_results
FN:406,_RNvCsa96wfuC4ae_8checksum25format_number_with_commas
FN:459,_RNvCsa96wfuC4ae_8checksum4main
FN:55,_RNvMCsa96wfuC4ae_8checksumNtB2_15BenchmarkConfig8validate
FN:124,_RNvMs0_Csa96wfuC4ae_8checksumNtB5_15BenchmarkResult3new
FN:71,_RNvMs_Csa96wfuC4ae_8checksumNtB4_15BenchmarkRunner3new
FN:79,_RNvMs_Csa96wfuC4ae_8checksumNtB4_15BenchmarkRunner3run
FN:290,_RNCNvCsa96wfuC4ae_8checksum10parse_args0B3_
FN:300,_RNCNvCsa96wfuC4ae_8checksum10parse_argss_0B3_
FN:351,_RNCNvCsa96wfuC4ae_8checksum18calculate_checksum0B3_
FN:108,_RNCNvMs_Csa96wfuC4ae_8checksumNtB6_15BenchmarkRunner3run0B6_
FN:109,_RNCNvMs_Csa96wfuC4ae_8checksumNtB6_15BenchmarkRunner3runs_0B6_
FN:290,_RNCNvCseaXugnuoQ7h_8checksum10parse_args0B3_
FN:300,_RNCNvCseaXugnuoQ7h_8checksum10parse_argss_0B3_
FN:351,_RNCNvCseaXugnuoQ7h_8checksum18calculate_checksum0B3_
FN:213,_RNvCseaXugnuoQ7h_8checksum10parse_args
FN:186,_RNvCseaXugnuoQ7h_8checksum11print_usage
FN:374,_RNvCseaXugnuoQ7h_8checksum13run_benchmark
FN:349,_RNvCseaXugnuoQ7h_8checksum18calculate_checksum
FN:421,_RNvCseaXugnuoQ7h_8checksum25display_benchmark_results
FN:459,_RNvCseaXugnuoQ7h_8checksum4main
FN:711,_RNvNtCseaXugnuoQ7h_8checksum5testss_27test_output_format_variants
FN:625,_RNvNtCseaXugnuoQ7h_8checksum5testss_27test_parse_args_normal_mode
FN:581,_RNvNtCseaXugnuoQ7h_8checksum5testss_30test_benchmark_runner_creation
FN:721,_RNvNtCseaXugnuoQ7h_8checksum5testss_30test_format_number_with_commas
FN:604,_RNvNtCseaXugnuoQ7h_8checksum5testss_30test_parse_args_benchmark_mode
FN:639,_RNvNtCseaXugnuoQ7h_8checksum5testss_31test_data_source_selection_file
FN:559,_RNvNtCseaXugnuoQ7h_8checksum5testss_33test_benchmark_result_calculation
FN:659,_RNvNtCseaXugnuoQ7h_8checksum5testss_33test_data_source_selection_string
FN:676,_RNvNtCseaXugnuoQ7h_8checksum5testss_36test_data_source_selection_generated
FN:552,_RNvNtCseaXugnuoQ7h_8checksum5testss_36test_generate_random_data_large_size
FN:546,_RNvNtCseaXugnuoQ7h_8checksum5testss_36test_generate_random_data_valid_size
FN:695,_RNvNtCseaXugnuoQ7h_8checksum5testss_36test_throughput_calculation_accuracy
FN:489,_RNvNtCseaXugnuoQ7h_8checksum5testss_38test_benchmark_config_validation_valid
FN:591,_RNvNtCseaXugnuoQ7h_8checksum5testss_41test_benchmark_runner_execution_in_memory
FN:537,_RNvNtCseaXugnuoQ7h_8checksum5testss_42test_benchmark_config_validation_none_size
FN:524,_RNvNtCseaXugnuoQ7h_8checksum5testss_42test_benchmark_config_validation_zero_size
FN:498,_RNvNtCseaXugnuoQ7h_8checksum5testss_46test_benchmark_config_validation_zero_duration
FN:511,_RNvNtCseaXugnuoQ7h_8checksum5testss_50test_benchmark_config_validation_negative_duration
FN:158,_RNvCseaXugnuoQ7h_8checksum18fill_pseudo_randomB1_
FN:169,_RNvCseaXugnuoQ7h_8checksum20generate_random_data
FN:406,_RNvCseaXugnuoQ7h_8checksum25format_number_with_commas
FN:55,_RNvMCseaXugnuoQ7h_8checksumNtB2_15BenchmarkConfig8validate
FN:124,_RNvMs0_CseaXugnuoQ7h_8checksumNtB5_15BenchmarkResult3new
FN:71,_RNvMs_CseaXugnuoQ7h_8checksumNtB4_15BenchmarkRunner3new
FN:79,_RNvMs_CseaXugnuoQ7h_8checksumNtB4_15BenchmarkRunner3run
FN:108,_RNCNvMs_CseaXugnuoQ7h_8checksumNtB6_15BenchmarkRunner3run0B6_
FN:109,_RNCNvMs_CseaXugnuoQ7h_8checksumNtB6_15BenchmarkRunner3runs_0B6_
FNDA:0,_RNvCsa96wfuC4ae_8checksum10parse_args
FNDA:0,_RNvCsa96wfuC4ae_8checksum11print_usage
FNDA:0,_RNvCsa96wfuC4ae_8checksum13run_benchmark
FNDA:0,_RNvCsa96wfuC4ae_8checksum18calculate_checksum
FNDA:0,_RNvCsa96wfuC4ae_8checksum18fill_pseudo_randomB1_
FNDA:0,_RNvCsa96wfuC4ae_8checksum20generate_random_data
FNDA:0,_RNvCsa96wfuC4ae_8checksum25display_benchmark_results
FNDA:0,_RNvCsa96wfuC4ae_8checksum25format_number_with_commas
FNDA:0,_RNvCsa96wfuC4ae_8checksum4main
FNDA:0,_RNvMCsa96wfuC4ae_8checksumNtB2_15BenchmarkConfig8validate
FNDA:0,_RNvMs0_Csa96wfuC4ae_8checksumNtB5_15BenchmarkResult3new
FNDA:0,_RNvMs_Csa96wfuC4ae_8checksumNtB4_15BenchmarkRunner3new
FNDA:0,_RNvMs_Csa96wfuC4ae_8checksumNtB4_15BenchmarkRunner3run
FNDA:0,_RNCNvCsa96wfuC4ae_8checksum10parse_args0B3_
FNDA:0,_RNCNvCsa96wfuC4ae_8checksum10parse_argss_0B3_
FNDA:0,_RNCNvCsa96wfuC4ae_8checksum18calculate_checksum0B3_
FNDA:0,_RNCNvMs_Csa96wfuC4ae_8checksumNtB6_15BenchmarkRunner3run0B6_
FNDA:0,_RNCNvMs_Csa96wfuC4ae_8checksumNtB6_15BenchmarkRunner3runs_0B6_
FNDA:0,_RNCNvCseaXugnuoQ7h_8checksum10parse_args0B3_
FNDA:0,_RNCNvCseaXugnuoQ7h_8checksum10parse_argss_0B3_
FNDA:0,_RNCNvCseaXugnuoQ7h_8checksum18calculate_checksum0B3_
FNDA:0,_RNvCseaXugnuoQ7h_8checksum10parse_args
FNDA:0,_RNvCseaXugnuoQ7h_8checksum11print_usage
FNDA:0,_RNvCseaXugnuoQ7h_8checksum13run_benchmark
FNDA:0,_RNvCseaXugnuoQ7h_8checksum18calculate_checksum
FNDA:0,_RNvCseaXugnuoQ7h_8checksum25display_benchmark_results
FNDA:0,_RNvCseaXugnuoQ7h_8checksum4main
FNDA:1,_RNvNtCseaXugnuoQ7h_8checksum5testss_27test_output_format_variants
FNDA:1,_RNvNtCseaXugnuoQ7h_8checksum5testss_27test_parse_args_normal_mode
FNDA:1,_RNvNtCseaXugnuoQ7h_8checksum5testss_30test_benchmark_runner_creation
FNDA:1,_RNvNtCseaXugnuoQ7h_8checksum5testss_30test_format_number_with_commas
FNDA:1,_RNvNtCseaXugnuoQ7h_8checksum5testss_30test_parse_args_benchmark_mode
FNDA:1,_RNvNtCseaXugnuoQ7h_8checksum5testss_31test_data_source_selection_file
FNDA:1,_RNvNtCseaXugnuoQ7h_8checksum5testss_33test_benchmark_result_calculation
FNDA:1,_RNvNtCseaXugnuoQ7h_8checksum5testss_33test_data_source_selection_string
FNDA:1,_RNvNtCseaXugnuoQ7h_8checksum5testss_36test_data_source_selection_generated
FNDA:1,_RNvNtCseaXugnuoQ7h_8checksum5testss_36test_generate_random_data_large_size
FNDA:1,_RNvNtCseaXugnuoQ7h_8checksum5testss_36test_generate_random_data_valid_size
FNDA:1,_RNvNtCseaXugnuoQ7h_8checksum5testss_36test_throughput_calculation_accuracy
FNDA:1,_RNvNtCseaXugnuoQ7h_8checksum5testss_38test_benchmark_config_validation_valid
FNDA:1,_RNvNtCseaXugnuoQ7h_8checksum5testss_41test_benchmark_runner_execution_in_memory
FNDA:1,_RNvNtCseaXugnuoQ7h_8checksum5testss_42test_benchmark_config_validation_none_size
FNDA:1,_RNvNtCseaXugnuoQ7h_8checksum5testss_42test_benchmark_config_validation_zero_size
FNDA:1,_RNvNtCseaXugnuoQ7h_8checksum5testss_46test_benchmark_config_validation_zero_duration
FNDA:1,_RNvNtCseaXugnuoQ7h_8checksum5testss_50test_benchmark_config_validation_negative_duration
FNDA:1,_RNvCseaXugnuoQ7h_8checksum18fill_pseudo_randomB1_
FNDA:2,_RNvCseaXugnuoQ7h_8checksum20generate_random_data
FNDA:9,_RNvCseaXugnuoQ7h_8checksum25format_number_with_commas
FNDA:8,_RNvMCseaXugnuoQ7h_8checksumNtB2_15BenchmarkConfig8validate
FNDA:3,_RNvMs0_CseaXugnuoQ7h_8checksumNtB5_15BenchmarkResult3new
FNDA:2,_RNvMs_CseaXugnuoQ7h_8checksumNtB4_15BenchmarkRunner3new
FNDA:1,_RNvMs_CseaXugnuoQ7h_8checksumNtB4_15BenchmarkRunner3run
FNDA:0,_RNCNvMs_CseaXugnuoQ7h_8checksumNtB6_15BenchmarkRunner3run0B6_
FNDA:0,_RNCNvMs_CseaXugnuoQ7h_8checksumNtB6_15BenchmarkRunner3runs_0B6_
FNF:36
FNH:25
DA:55,8
DA:56,8
DA:57,4
DA:58,4
DA:60,4
DA:61,3
DA:62,2
DA:63,1
DA:64,1
DA:66,2
DA:67,8
DA:71,2
DA:72,2
DA:73,2
DA:74,2
DA:75,2
DA:76,2
DA:77,2
DA:79,1
DA:82,1
DA:83,1
DA:85,879236
DA:86,879235
DA:87,879235
DA:88,879235
DA:89,879235
DA:90,0
DA:91,0
DA:92,0
DA:93,0
DA:94,0
DA:95,0
DA:96,0
DA:101,879235
DA:104,1
DA:105,1
DA:106,1
DA:107,0
DA:108,0
DA:109,0
DA:112,1
DA:114,1
DA:115,1
DA:116,1
DA:117,1
DA:118,1
DA:119,1
DA:120,1
DA:124,3
DA:125,3
DA:126,3
DA:127,3
DA:128,3
DA:129,3
DA:130,3
DA:131,3
DA:133,0
DA:136,3
DA:137,3
DA:139,0
DA:142,3
DA:143,3
DA:144,3
DA:145,3
DA:146,3
DA:147,3
DA:148,3
DA:149,3
DA:150,3
DA:158,1
DA:159,1
DA:160,1025
DA:161,1024
DA:162,1024
DA:163,1024
DA:164,1024
DA:165,1024
DA:166,1024
DA:167,1
DA:169,2
DA:171,2
DA:173,1
DA:174,1
DA:177,1
DA:180,1
DA:181,1
DA:183,1
DA:184,2
DA:186,0
DA:187,0
DA:188,0
DA:189,0
DA:191,0
DA:192,0
DA:193,0
DA:194,0
DA:195,0
DA:196,0
DA:197,0
DA:198,0
DA:199,0
DA:200,0
DA:201,0
DA:202,0
DA:203,0
DA:204,0
DA:205,0
DA:206,0
DA:207,0
DA:208,0
DA:209,0
DA:210,0
DA:211,0
DA:213,0
DA:214,0
DA:216,0
DA:217,0
DA:218,0
DA:221,0
DA:222,0
DA:223,0
DA:225,0
DA:226,0
DA:227,0
DA:228,0
DA:229,0
DA:230,0
DA:231,0
DA:233,0
DA:234,0
DA:235,0
DA:236,0
DA:237,0
DA:238,0
DA:239,0
DA:240,0
DA:241,0
DA:243,0
DA:244,0
DA:245,0
DA:246,0
DA:247,0
DA:248,0
DA:249,0
DA:250,0
DA:251,0
DA:253,0
DA:254,0
DA:255,0
DA:256,0
DA:257,0
DA:258,0
DA:259,0
DA:260,0
DA:261,0
DA:263,0
DA:264,0
DA:265,0
DA:266,0
DA:267,0
DA:268,0
DA:269,0
DA:270,0
DA:271,0
DA:272,0
DA:273,0
DA:274,0
DA:277,0
DA:279,0
DA:280,0
DA:281,0
DA:282,0
DA:283,0
DA:284,0
DA:285,0
DA:286,0
DA:288,0
DA:289,0
DA:290,0
DA:292,0
DA:294,0
DA:295,0
DA:296,0
DA:297,0
DA:298,0
DA:299,0
DA:300,0
DA:301,0
DA:303,0
DA:304,0
DA:310,0
DA:313,0
DA:314,0
DA:315,0
DA:318,0
DA:319,0
DA:320,0
DA:321,0
DA:322,0
DA:323,0
DA:324,0
DA:326,0
DA:330,0
DA:332,0
DA:333,0
DA:334,0
DA:335,0
DA:336,0
DA:337,0
DA:340,0
DA:341,0
DA:342,0
DA:343,0
DA:344,0
DA:345,0
DA:346,0
DA:347,0
DA:349,0
DA:350,0
DA:351,0
DA:354,0
DA:355,0
DA:356,0
DA:358,0
DA:359,0
DA:360,0
DA:361,0
DA:363,0
DA:366,0
DA:367,0
DA:368,0
DA:371,0
DA:372,0
DA:374,0
DA:375,0
DA:376,0
DA:377,0
DA:378,0
DA:380,0
DA:382,0
DA:383,0
DA:384,0
DA:385,0
DA:386,0
DA:387,0
DA:390,0
DA:391,0
DA:392,0
DA:396,0
DA:397,0
DA:400,0
DA:402,0
DA:403,0
DA:406,9
DA:407,9
DA:408,9
DA:409,9
DA:411,53
DA:412,53
DA:413,12
DA:414,41
DA:415,53
DA:418,9
DA:419,9
DA:421,0
DA:422,0
DA:423,0
DA:426,0
DA:427,0
DA:428,0
DA:429,0
DA:431,0
DA:434,0
DA:435,0
DA:436,0
DA:440,0
DA:441,0
DA:442,0
DA:443,0
DA:445,0
DA:448,0
DA:449,0
DA:450,0
DA:451,0
DA:453,0
DA:456,0
DA:457,0
DA:459,0
DA:460,0
DA:461,0
DA:462,0
DA:463,0
DA:464,0
DA:465,0
DA:467,0
DA:468,0
DA:469,0
DA:470,0
DA:472,0
DA:473,0
DA:474,0
DA:475,0
DA:480,0
DA:481,0
DA:489,1
DA:490,1
DA:491,1
DA:492,1
DA:493,1
DA:494,1
DA:495,1
DA:498,1
DA:499,1
DA:500,1
DA:501,1
DA:502,1
DA:503,1
DA:504,1
DA:505,1
DA:508,1
DA:511,1
DA:512,1
DA:513,1
DA:514,1
DA:515,1
DA:516,1
DA:517,1
DA:518,1
DA:521,1
DA:524,1
DA:525,1
DA:526,1
DA:527,1
DA:528,1
DA:529,1
DA:530,1
DA:531,1
DA:534,1
DA:537,1
DA:538,1
DA:539,1
DA:540,1
DA:541,1
DA:542,1
DA:543,1
DA:546,1
DA:547,1
DA:548,1
DA:549,1
DA:552,1
DA:553,1
DA:554,1
DA:555,1
DA:556,1
DA:559,1
DA:560,1
DA:563,1
DA:567,1
DA:568,1
DA:569,1
DA:572,1
DA:573,1
DA:576,1
DA:577,1
DA:578,1
DA:581,1
DA:582,1
DA:583,1
DA:584,1
DA:586,1
DA:587,1
DA:588,1
DA:591,1
DA:592,1
DA:593,1
DA:594,1
DA:596,1
DA:597,1
DA:598,1
DA:599,1
DA:600,1
DA:601,1
DA:604,1
DA:607,1
DA:608,1
DA:609,1
DA:610,1
DA:611,1
DA:612,1
DA:613,1
DA:614,1
DA:615,1
DA:616,1
DA:618,1
DA:619,1
DA:620,1
DA:621,1
DA:622,1
DA:625,1
DA:626,1
DA:627,1
DA:628,1
DA:629,1
DA:630,1
DA:631,1
DA:632,1
DA:634,1
DA:635,1
DA:636,1
DA:639,1
DA:641,1
DA:642,1
DA:643,1
DA:644,1
DA:645,1
DA:646,1
DA:647,1
DA:648,1
DA:649,1
DA:650,1
DA:654,1
DA:655,1
DA:656,1
DA:659,1
DA:660,1
DA:661,1
DA:662,1
DA:663,1
DA:664,1
DA:665,1
DA:666,1
DA:667,1
DA:668,1
DA:669,1
DA:671,1
DA:672,1
DA:673,1
DA:676,1
DA:677,1
DA:678,1
DA:679,1
DA:680,1
DA:681,1
DA:682,1
DA:683,1
DA:684,1
DA:685,1
DA:686,1
DA:689,1
DA:690,1
DA:691,1
DA:692,1
DA:695,1
DA:697,1
DA:698,1
DA:699,1
DA:701,1
DA:702,1
DA:705,1
DA:706,1
DA:707,1
DA:708,1
DA:711,1
DA:712,1
DA:713,1
DA:716,1
DA:717,1
DA:718,1
DA:721,1
DA:722,1
DA:723,1
DA:724,1
DA:725,1
DA:726,1
DA:727,1
DA:728,1
DA:729,1
DA:730,1
DA:731,1
BRF:0
BRH:0
LF:484
LH:262
end_of_record
SF:/Users/mr.wolf/loadingalias/crc-fast-rust/src/bin/get-custom-params.rs
FN:80,_RNCNvCs7c29JCFxz5Y_17get_custom_params10parse_args0B3_
FN:45,_RNCNvCs7c29JCFxz5Y_17get_custom_params20parse_hex_or_decimal0B3_
FN:48,_RNCNvCs7c29JCFxz5Y_17get_custom_params20parse_hex_or_decimals_0B3_
FN:60,_RNvCs7c29JCFxz5Y_17get_custom_params10parse_args
FN:52,_RNvCs7c29JCFxz5Y_17get_custom_params10parse_bool
FN:128,_RNvCs7c29JCFxz5Y_17get_custom_params11print_usage
FN:43,_RNvCs7c29JCFxz5Y_17get_custom_params20parse_hex_or_decimal
FN:144,_RNvCs7c29JCFxz5Y_17get_custom_params4main
FN:32,_RNvMCs7c29JCFxz5Y_17get_custom_paramsNtB2_6Config11is_complete
FN:20,_RNvMCs7c29JCFxz5Y_17get_custom_paramsNtB2_6Config3new
FN:80,_RNCNvCseAoEwHB2wlh_17get_custom_params10parse_args0B3_
FN:45,_RNCNvCseAoEwHB2wlh_17get_custom_params20parse_hex_or_decimal0B3_
FN:48,_RNCNvCseAoEwHB2wlh_17get_custom_params20parse_hex_or_decimals_0B3_
FN:60,_RNvCseAoEwHB2wlh_17get_custom_params10parse_args
FN:52,_RNvCseAoEwHB2wlh_17get_custom_params10parse_bool
FN:128,_RNvCseAoEwHB2wlh_17get_custom_params11print_usage
FN:43,_RNvCseAoEwHB2wlh_17get_custom_params20parse_hex_or_decimal
FN:144,_RNvCseAoEwHB2wlh_17get_custom_params4main
FN:32,_RNvMCseAoEwHB2wlh_17get_custom_paramsNtB2_6Config11is_complete
FN:20,_RNvMCseAoEwHB2wlh_17get_custom_paramsNtB2_6Config3new
FNDA:0,_RNCNvCs7c29JCFxz5Y_17get_custom_params10parse_args0B3_
FNDA:0,_RNCNvCs7c29JCFxz5Y_17get_custom_params20parse_hex_or_decimal0B3_
FNDA:0,_RNCNvCs7c29JCFxz5Y_17get_custom_params20parse_hex_or_decimals_0B3_
FNDA:0,_RNvCs7c29JCFxz5Y_17get_custom_params10parse_args
FNDA:0,_RNvCs7c29JCFxz5Y_17get_custom_params10parse_bool
FNDA:0,_RNvCs7c29JCFxz5Y_17get_custom_params11print_usage
FNDA:0,_RNvCs7c29JCFxz5Y_17get_custom_params20parse_hex_or_decimal
FNDA:0,_RNvCs7c29JCFxz5Y_17get_custom_params4main
FNDA:0,_RNvMCs7c29JCFxz5Y_17get_custom_paramsNtB2_6Config11is_complete
FNDA:0,_RNvMCs7c29JCFxz5Y_17get_custom_paramsNtB2_6Config3new
FNDA:0,_RNCNvCseAoEwHB2wlh_17get_custom_params10parse_args0B3_
FNDA:0,_RNCNvCseAoEwHB2wlh_17get_custom_params20parse_hex_or_decimal0B3_
FNDA:0,_RNCNvCseAoEwHB2wlh_17get_custom_params20parse_hex_or_decimals_0B3_
FNDA:0,_RNvCseAoEwHB2wlh_17get_custom_params10parse_args
FNDA:0,_RNvCseAoEwHB2wlh_17get_custom_params10parse_bool
FNDA:0,_RNvCseAoEwHB2wlh_17get_custom_params11print_usage
FNDA:0,_RNvCseAoEwHB2wlh_17get_custom_params20parse_hex_or_decimal
FNDA:0,_RNvCseAoEwHB2wlh_17get_custom_params4main
FNDA:0,_RNvMCseAoEwHB2wlh_17get_custom_paramsNtB2_6Config11is_complete
FNDA:0,_RNvMCseAoEwHB2wlh_17get_custom_paramsNtB2_6Config3new
FNF:10
FNH:0
DA:20,0
DA:21,0
DA:22,0
DA:23,0
DA:24,0
DA:25,0
DA:26,0
DA:27,0
DA:28,0
DA:29,0
DA:30,0
DA:32,0
DA:33,0
DA:34,0
DA:35,0
DA:36,0
DA:37,0
DA:38,0
DA:39,0
DA:40,0
DA:43,0
DA:44,0
DA:45,0
DA:47,0
DA:48,0
DA:50,0
DA:52,0
DA:53,0
DA:54,0
DA:55,0
DA:56,0
DA:58,0
DA:60,0
DA:61,0
DA:62,0
DA:64,0
DA:65,0
DA:66,0
DA:67,0
DA:68,0
DA:69,0
DA:70,0
DA:71,0
DA:73,0
DA:74,0
DA:75,0
DA:76,0
DA:78,0
DA:79,0
DA:80,0
DA:82,0
DA:84,0
DA:85,0
DA:86,0
DA:87,0
DA:88,0
DA:89,0
DA:91,0
DA:92,0
DA:93,0
DA:94,0
DA:95,0
DA:96,0
DA:98,0
DA:99,0
DA:100,0
DA:101,0
DA:102,0
DA:103,0
DA:105,0
DA:106,0
DA:107,0
DA:108,0
DA:109,0
DA:110,0
DA:112,0
DA:113,0
DA:114,0
DA:115,0
DA:116,0
DA:117,0
DA:119,0
DA:120,0
DA:125,0
DA:126,0
DA:128,0
DA:129,0
DA:130,0
DA:131,0
DA:132,0
DA:133,0
DA:134,0
DA:135,0
DA:136,0
DA:137,0
DA:138,0
DA:139,0
DA:140,0
DA:141,0
DA:142,0
DA:144,0
DA:145,0
DA:147,0
DA:148,0
DA:149,0
DA:150,0
DA:152,0
DA:153,0
DA:154,0
DA:155,0
DA:156,0
DA:157,0
DA:158,0
DA:163,0
DA:164,0
DA:165,0
DA:166,0
DA:167,0
DA:168,0
DA:170,0
DA:172,0
DA:173,0
DA:174,0
DA:175,0
DA:176,0
DA:177,0
DA:178,0
DA:179,0
DA:182,0
DA:183,0
DA:184,0
DA:185,0
DA:186,0
DA:187,0
DA:188,0
DA:189,0
DA:191,0
DA:192,0
DA:193,0
DA:194,0
DA:196,0
DA:199,0
DA:200,0
DA:201,0
DA:202,0
DA:203,0
DA:204,0
DA:205,0
DA:206,0
DA:207,0
DA:210,0
DA:211,0
DA:212,0
DA:213,0
DA:215,0
DA:216,0
DA:217,0
DA:219,0
DA:220,0
BRF:0
BRH:0
LF:162
LH:0
end_of_record
SF:/Users/mr.wolf/loadingalias/crc-fast-rust/src/cache.rs
FN:71,_RNvMNtCs3YYFpeUFfny_8crc_fast5cacheNtB2_17CrcParamsCacheKey3new
FN:118,_RNvNtCs3YYFpeUFfny_8crc_fast5cache20get_or_generate_keys
FN:85,_RNvNtCs3YYFpeUFfny_8crc_fast5cache9get_cache
FN:138,_RNCNvNtCs3YYFpeUFfny_8crc_fast5cache20get_or_generate_keys0B5_
FN:86,_RNCNvNtCs3YYFpeUFfny_8crc_fast5cache9get_cache0B5_
FN:1110,_RNvNtNtCscwG700SpbJM_8crc_fast5cache5tests30cache_memory_allocation_stress
FN:246,_RNvNtNtCscwG700SpbJM_8crc_fast5cache5testss_22test_cache_key_hashing
FN:211,_RNvNtNtCscwG700SpbJM_8crc_fast5cache5testss_23test_cache_key_creation
FN:225,_RNvNtNtCscwG700SpbJM_8crc_fast5cache5testss_23test_cache_key_equality
FN:271,_RNvNtNtCscwG700SpbJM_8crc_fast5cache5testss_24test_cache_hit_scenarios
FN:439,_RNvNtNtCscwG700SpbJM_8crc_fast5cache5testss_25test_cache_error_handling
FN:294,_RNvNtNtCscwG700SpbJM_8crc_fast5cache5testss_25test_cache_miss_scenarios
FN:1539,_RNvNtNtCscwG700SpbJM_8crc_fast5cache5testss_26test_crc_params_edge_cases
FN:585,_RNvNtNtCscwG700SpbJM_8crc_fast5cache5testss_26test_read_write_contention
FN:474,_RNvNtNtCscwG700SpbJM_8crc_fast5cache5testss_27test_concurrent_cache_reads
FN:520,_RNvNtNtCscwG700SpbJM_8crc_fast5cache5testss_28test_concurrent_cache_writes
FN:1657,_RNvNtNtCscwG700SpbJM_8crc_fast5cache5testss_28test_lock_poisoning_recovery
FN:454,_RNvNtNtCscwG700SpbJM_8crc_fast5cache5testss_30test_cache_key_debug_and_clone
FN:414,_RNvNtNtCscwG700SpbJM_8crc_fast5cache5testss_31test_cache_management_utilities
FN:739,_RNvNtNtCscwG700SpbJM_8crc_fast5cache5testss_32test_mixed_concurrent_operations
FN:1438,_RNvNtNtCscwG700SpbJM_8crc_fast5cache5testss_33test_crc_params_api_compatibility
FN:959,_RNvNtNtCscwG700SpbJM_8crc_fast5cache5testss_34test_cache_error_recovery_patterns
FN:821,_RNvNtNtCscwG700SpbJM_8crc_fast5cache5testss_34test_cache_lock_poisoning_recovery
FN:1106,_RNvNtNtCscwG700SpbJM_8crc_fast5cache5testss_35test_cache_memory_allocation_stress
FN:1587,_RNvNtNtCscwG700SpbJM_8crc_fast5cache5testss_35test_crc_params_concurrent_creation
FN:370,_RNvNtNtCscwG700SpbJM_8crc_fast5cache5testss_36test_multiple_parameter_combinations
FN:1003,_RNvNtNtCscwG700SpbJM_8crc_fast5cache5testss_37test_cache_concurrent_error_scenarios
FN:1164,_RNvNtNtCscwG700SpbJM_8crc_fast5cache5testss_38test_crc_params_new_behavior_unchanged
FN:1098,_RNvNtNtCscwG700SpbJM_8crc_fast5cache5testss_39test_cache_memory_allocation_non_stress
FN:865,_RNvNtNtCscwG700SpbJM_8crc_fast5cache5testss_40test_cache_fallback_to_direct_generation
FN:1232,_RNvNtNtCscwG700SpbJM_8crc_fast5cache5testss_40test_existing_crc_parameter_combinations
FN:1273,_RNvNtNtCscwG700SpbJM_8crc_fast5cache5testss_41test_cached_vs_uncached_results_identical
FN:906,_RNvNtNtCscwG700SpbJM_8crc_fast5cache5testss_43test_cache_operations_under_memory_pressure
FN:1726,_RNvNtNtCscwG700SpbJM_8crc_fast5cache5testss_44test_cache_behavior_with_thread_local_access
FN:329,_RNvNtNtCscwG700SpbJM_8crc_fast5cache5testss_44test_cached_keys_identical_to_generated_keys
FN:1481,_RNvNtNtCscwG700SpbJM_8crc_fast5cache5testss_44test_crc_params_with_all_standard_algorithms
FN:680,_RNvNtNtCscwG700SpbJM_8crc_fast5cache5testss_46test_cache_consistency_under_concurrent_access
FN:1321,_RNvNtNtCscwG700SpbJM_8crc_fast5cache5testss_50test_multiple_crc_params_instances_use_cached_keys
FN:605,_RNCNvNtNtCscwG700SpbJM_8crc_fast5cache5testss_26test_read_write_contention0B7_
FN:663,_RNCNvNtNtCscwG700SpbJM_8crc_fast5cache5testss_26test_read_write_contentions0_0B7_
FN:667,_RNCNvNtNtCscwG700SpbJM_8crc_fast5cache5testss_26test_read_write_contentions1_0B7_
FN:630,_RNCNvNtNtCscwG700SpbJM_8crc_fast5cache5testss_26test_read_write_contentions_0B7_
FN:490,_RNCNvNtNtCscwG700SpbJM_8crc_fast5cache5testss_27test_concurrent_cache_reads0B7_
FN:545,_RNCNvNtNtCscwG700SpbJM_8crc_fast5cache5testss_28test_concurrent_cache_writes0B7_
FN:1684,_RNCNvNtNtCscwG700SpbJM_8crc_fast5cache5testss_28test_lock_poisoning_recovery0B7_
FN:754,_RNCNvNtNtCscwG700SpbJM_8crc_fast5cache5testss_32test_mixed_concurrent_operations0B7_
FN:837,_RNCNvNtNtCscwG700SpbJM_8crc_fast5cache5testss_34test_cache_lock_poisoning_recovery0B7_
FN:1600,_RNCNvNtNtCscwG700SpbJM_8crc_fast5cache5testss_35test_crc_params_concurrent_creation0B7_
FN:1017,_RNCNvNtNtCscwG700SpbJM_8crc_fast5cache5testss_37test_cache_concurrent_error_scenarios0B7_
FN:1736,_RNCNvNtNtCscwG700SpbJM_8crc_fast5cache5testss_44test_cache_behavior_with_thread_local_access0B7_
FN:1751,_RNCNvNtNtCscwG700SpbJM_8crc_fast5cache5testss_44test_cache_behavior_with_thread_local_accesss_0B7_
FN:695,_RNCNvNtNtCscwG700SpbJM_8crc_fast5cache5testss_46test_cache_consistency_under_concurrent_access0B7_
FN:194,_RNCNvNtCscwG700SpbJM_8crc_fast5cache11clear_cache0B5_
FN:138,_RNCNvNtCscwG700SpbJM_8crc_fast5cache20get_or_generate_keys0B5_
FN:86,_RNCNvNtCscwG700SpbJM_8crc_fast5cache9get_cache0B5_
FN:71,_RNvMNtCscwG700SpbJM_8crc_fast5cacheNtB2_17CrcParamsCacheKey3new
FN:189,_RNvNtCscwG700SpbJM_8crc_fast5cache11clear_cache
FN:118,_RNvNtCscwG700SpbJM_8crc_fast5cache20get_or_generate_keys
FN:85,_RNvNtCscwG700SpbJM_8crc_fast5cache9get_cache
FNDA:2,_RNvMNtCs3YYFpeUFfny_8crc_fast5cacheNtB2_17CrcParamsCacheKey3new
FNDA:2,_RNvNtCs3YYFpeUFfny_8crc_fast5cache20get_or_generate_keys
FNDA:4,_RNvNtCs3YYFpeUFfny_8crc_fast5cache9get_cache
FNDA:2,_RNCNvNtCs3YYFpeUFfny_8crc_fast5cache20get_or_generate_keys0B5_
FNDA:2,_RNCNvNtCs3YYFpeUFfny_8crc_fast5cache9get_cache0B5_
FNDA:2,_RNvNtNtCscwG700SpbJM_8crc_fast5cache5tests30cache_memory_allocation_stress
FNDA:1,_RNvNtNtCscwG700SpbJM_8crc_fast5cache5testss_22test_cache_key_hashing
FNDA:1,_RNvNtNtCscwG700SpbJM_8crc_fast5cache5testss_23test_cache_key_creation
FNDA:1,_RNvNtNtCscwG700SpbJM_8crc_fast5cache5testss_23test_cache_key_equality
FNDA:1,_RNvNtNtCscwG700SpbJM_8crc_fast5cache5testss_24test_cache_hit_scenarios
FNDA:1,_RNvNtNtCscwG700SpbJM_8crc_fast5cache5testss_25test_cache_error_handling
FNDA:1,_RNvNtNtCscwG700SpbJM_8crc_fast5cache5testss_25test_cache_miss_scenarios
FNDA:1,_RNvNtNtCscwG700SpbJM_8crc_fast5cache5testss_26test_crc_params_edge_cases
FNDA:1,_RNvNtNtCscwG700SpbJM_8crc_fast5cache5testss_26test_read_write_contention
FNDA:1,_RNvNtNtCscwG700SpbJM_8crc_fast5cache5testss_27test_concurrent_cache_reads
FNDA:1,_RNvNtNtCscwG700SpbJM_8crc_fast5cache5testss_28test_concurrent_cache_writes
FNDA:1,_RNvNtNtCscwG700SpbJM_8crc_fast5cache5testss_28test_lock_poisoning_recovery
FNDA:1,_RNvNtNtCscwG700SpbJM_8crc_fast5cache5testss_30test_cache_key_debug_and_clone
FNDA:1,_RNvNtNtCscwG700SpbJM_8crc_fast5cache5testss_31test_cache_management_utilities
FNDA:1,_RNvNtNtCscwG700SpbJM_8crc_fast5cache5testss_32test_mixed_concurrent_operations
FNDA:1,_RNvNtNtCscwG700SpbJM_8crc_fast5cache5testss_33test_crc_params_api_compatibility
FNDA:1,_RNvNtNtCscwG700SpbJM_8crc_fast5cache5testss_34test_cache_error_recovery_patterns
FNDA:1,_RNvNtNtCscwG700SpbJM_8crc_fast5cache5testss_34test_cache_lock_poisoning_recovery
FNDA:1,_RNvNtNtCscwG700SpbJM_8crc_fast5cache5testss_35test_cache_memory_allocation_stress
FNDA:1,_RNvNtNtCscwG700SpbJM_8crc_fast5cache5testss_35test_crc_params_concurrent_creation
FNDA:1,_RNvNtNtCscwG700SpbJM_8crc_fast5cache5testss_36test_multiple_parameter_combinations
FNDA:1,_RNvNtNtCscwG700SpbJM_8crc_fast5cache5testss_37test_cache_concurrent_error_scenarios
FNDA:1,_RNvNtNtCscwG700SpbJM_8crc_fast5cache5testss_38test_crc_params_new_behavior_unchanged
FNDA:1,_RNvNtNtCscwG700SpbJM_8crc_fast5cache5testss_39test_cache_memory_allocation_non_stress
FNDA:1,_RNvNtNtCscwG700SpbJM_8crc_fast5cache5testss_40test_cache_fallback_to_direct_generation
FNDA:1,_RNvNtNtCscwG700SpbJM_8crc_fast5cache5testss_40test_existing_crc_parameter_combinations
FNDA:1,_RNvNtNtCscwG700SpbJM_8crc_fast5cache5testss_41test_cached_vs_uncached_results_identical
FNDA:1,_RNvNtNtCscwG700SpbJM_8crc_fast5cache5testss_43test_cache_operations_under_memory_pressure
FNDA:1,_RNvNtNtCscwG700SpbJM_8crc_fast5cache5testss_44test_cache_behavior_with_thread_local_access
FNDA:1,_RNvNtNtCscwG700SpbJM_8crc_fast5cache5testss_44test_cached_keys_identical_to_generated_keys
FNDA:1,_RNvNtNtCscwG700SpbJM_8crc_fast5cache5testss_44test_crc_params_with_all_standard_algorithms
FNDA:1,_RNvNtNtCscwG700SpbJM_8crc_fast5cache5testss_46test_cache_consistency_under_concurrent_access
FNDA:1,_RNvNtNtCscwG700SpbJM_8crc_fast5cache5testss_50test_multiple_crc_params_instances_use_cached_keys
FNDA:6,_RNCNvNtNtCscwG700SpbJM_8crc_fast5cache5testss_26test_read_write_contention0B7_
FNDA:9,_RNCNvNtNtCscwG700SpbJM_8crc_fast5cache5testss_26test_read_write_contentions0_0B7_
FNDA:9,_RNCNvNtNtCscwG700SpbJM_8crc_fast5cache5testss_26test_read_write_contentions1_0B7_
FNDA:3,_RNCNvNtNtCscwG700SpbJM_8crc_fast5cache5testss_26test_read_write_contentions_0B7_
FNDA:8,_RNCNvNtNtCscwG700SpbJM_8crc_fast5cache5testss_27test_concurrent_cache_reads0B7_
FNDA:6,_RNCNvNtNtCscwG700SpbJM_8crc_fast5cache5testss_28test_concurrent_cache_writes0B7_
FNDA:4,_RNCNvNtNtCscwG700SpbJM_8crc_fast5cache5testss_28test_lock_poisoning_recovery0B7_
FNDA:8,_RNCNvNtNtCscwG700SpbJM_8crc_fast5cache5testss_32test_mixed_concurrent_operations0B7_
FNDA:1,_RNCNvNtNtCscwG700SpbJM_8crc_fast5cache5testss_34test_cache_lock_poisoning_recovery0B7_
FNDA:8,_RNCNvNtNtCscwG700SpbJM_8crc_fast5cache5testss_35test_crc_params_concurrent_creation0B7_
FNDA:8,_RNCNvNtNtCscwG700SpbJM_8crc_fast5cache5testss_37test_cache_concurrent_error_scenarios0B7_
FNDA:1,_RNCNvNtNtCscwG700SpbJM_8crc_fast5cache5testss_44test_cache_behavior_with_thread_local_access0B7_
FNDA:5,_RNCNvNtNtCscwG700SpbJM_8crc_fast5cache5testss_44test_cache_behavior_with_thread_local_accesss_0B7_
FNDA:10,_RNCNvNtNtCscwG700SpbJM_8crc_fast5cache5testss_46test_cache_consistency_under_concurrent_access0B7_
FNDA:118,_RNCNvNtCscwG700SpbJM_8crc_fast5cache11clear_cache0B5_
FNDA:2638,_RNCNvNtCscwG700SpbJM_8crc_fast5cache20get_or_generate_keys0B5_
FNDA:1,_RNCNvNtCscwG700SpbJM_8crc_fast5cache9get_cache0B5_
FNDA:119374,_RNvMNtCscwG700SpbJM_8crc_fast5cacheNtB2_17CrcParamsCacheKey3new
FNDA:118,_RNvNtCscwG700SpbJM_8crc_fast5cache11clear_cache
FNDA:119362,_RNvNtCscwG700SpbJM_8crc_fast5cache20get_or_generate_keys
FNDA:122118,_RNvNtCscwG700SpbJM_8crc_fast5cache9get_cache
FNF:54
FNH:54
DA:71,119376
DA:72,119376
DA:73,119376
DA:74,119376
DA:75,119376
DA:76,119376
DA:77,119376
DA:85,122122
DA:86,122122
DA:87,122122
DA:118,119364
DA:121,119364
DA:125,119364
DA:126,119364
DA:127,116724
DA:128,2640
DA:129,0
DA:132,2640
DA:136,2640
DA:137,2640
DA:138,2640
DA:140,2640
DA:172,119364
DA:189,118
DA:194,118
DA:203,118
DA:211,1
DA:212,1
DA:213,1
DA:215,1
DA:216,1
DA:217,1
DA:219,1
DA:220,1
DA:221,1
DA:222,1
DA:225,1
DA:226,1
DA:227,1
DA:228,1
DA:229,1
DA:230,1
DA:233,1
DA:234,1
DA:237,1
DA:238,1
DA:239,1
DA:240,1
DA:241,1
DA:242,1
DA:243,1
DA:246,1
DA:247,1
DA:248,1
DA:249,1
DA:252,1
DA:253,1
DA:254,1
DA:255,1
DA:258,1
DA:261,1
DA:262,1
DA:263,1
DA:266,1
DA:267,1
DA:268,1
DA:271,1
DA:272,1
DA:275,1
DA:278,1
DA:281,1
DA:284,1
DA:285,1
DA:287,1
DA:288,1
DA:289,1
DA:290,1
DA:291,1
DA:294,1
DA:295,1
DA:298,1
DA:299,1
DA:300,1
DA:303,1
DA:304,1
DA:305,1
DA:308,1
DA:309,1
DA:310,1
DA:313,1
DA:314,1
DA:315,1
DA:316,1
DA:317,1
DA:318,1
DA:320,1
DA:321,1
DA:322,1
DA:323,1
DA:324,1
DA:325,1
DA:326,1
DA:329,1
DA:330,1
DA:333,1
DA:334,1
DA:335,1
DA:338,1
DA:341,1
DA:344,1
DA:347,1
DA:348,1
DA:349,1
DA:352,1
DA:353,1
DA:354,1
DA:356,1
DA:357,1
DA:358,1
DA:360,1
DA:361,1
DA:362,1
DA:365,1
DA:366,1
DA:367,1
DA:370,1
DA:371,1
DA:374,1
DA:375,1
DA:376,1
DA:377,1
DA:378,1
DA:379,1
DA:380,1
DA:381,1
DA:383,1
DA:386,7
DA:387,6
DA:388,6
DA:389,6
DA:392,6
DA:393,15
DA:394,15
DA:395,15
DA:396,0
DA:403,6
DA:404,6
DA:405,6
DA:406,6
DA:407,0
DA:411,1
DA:414,1
DA:416,1
DA:419,1
DA:420,1
DA:423,1
DA:424,1
DA:426,1
DA:427,1
DA:430,1
DA:434,1
DA:435,1
DA:436,1
DA:439,1
DA:441,1
DA:442,1
DA:445,1
DA:446,1
DA:447,1
DA:450,1
DA:451,1
DA:454,1
DA:455,1
DA:458,1
DA:459,1
DA:460,1
DA:461,1
DA:462,1
DA:465,1
DA:466,1
DA:467,1
DA:468,1
DA:469,1
DA:470,1
DA:474,1
DA:478,1
DA:481,1
DA:483,1
DA:484,1
DA:485,1
DA:488,8
DA:489,8
DA:490,8
DA:492,8
DA:495,8
DA:496,8
DA:497,8
DA:498,8
DA:502,1
DA:503,9
DA:504,8
DA:505,8
DA:508,1
DA:509,9
DA:510,8
DA:512,0
DA:516,1
DA:520,1
DA:524,1
DA:526,1
DA:527,1
DA:528,1
DA:531,1
DA:532,1
DA:533,1
DA:534,1
DA:535,1
DA:536,1
DA:537,1
DA:538,1
DA:541,6
DA:542,6
DA:543,6
DA:545,6
DA:547,6
DA:550,6
DA:551,6
DA:552,6
DA:553,6
DA:557,1
DA:558,7
DA:559,6
DA:560,6
DA:563,1
DA:566,7
DA:567,6
DA:568,6
DA:570,0
DA:575,6
DA:576,6
DA:578,0
DA:582,1
DA:585,1
DA:590,1
DA:593,1
DA:594,1
DA:596,1
DA:597,1
DA:598,1
DA:599,1
DA:600,1
DA:603,6
DA:604,6
DA:605,6
DA:606,6
DA:608,6
DA:609,6
DA:612,53544
DA:613,53538
DA:614,53538
DA:617,53538
DA:618,53538
DA:619,53538
DA:622,6
DA:623,6
DA:624,6
DA:628,3
DA:629,3
DA:630,3
DA:631,3
DA:633,3
DA:634,3
DA:637,33
DA:639,30
DA:640,30
DA:642,30
DA:643,30
DA:646,3
DA:647,3
DA:648,3
DA:652,1
DA:653,10
DA:654,9
DA:655,9
DA:658,1
DA:661,1
DA:662,1
DA:663,9
DA:664,1
DA:665,1
DA:666,1
DA:667,9
DA:668,1
DA:670,1
DA:671,1
DA:674,10
DA:675,9
DA:677,1
DA:680,1
DA:684,1
DA:686,1
DA:687,1
DA:688,1
DA:693,10
DA:694,10
DA:695,10
DA:696,10
DA:699,10
DA:700,10
DA:701,10
DA:702,10
DA:706,1
DA:707,11
DA:708,10
DA:709,10
DA:712,1
DA:713,1
DA:715,11
DA:716,10
DA:718,0
DA:724,1
DA:725,1
DA:727,0
DA:731,1
DA:732,1
DA:734,0
DA:736,1
DA:739,1
DA:744,1
DA:746,1
DA:747,1
DA:748,1
DA:752,8
DA:753,8
DA:754,8
DA:755,8
DA:757,8
DA:758,8
DA:760,6674
DA:761,6666
DA:762,4140
DA:763,4140
DA:764,4140
DA:765,4140
DA:766,5
DA:767,5
DA:768,5
DA:769,5
DA:770,5
DA:771,2499
DA:772,2499
DA:773,2499
DA:774,2499
DA:775,2499
DA:778,22
DA:779,4
DA:780,18
DA:781,22
DA:783,0
DA:785,6666
DA:788,8
DA:789,8
DA:790,8
DA:794,1
DA:795,9
DA:796,8
DA:797,8
DA:800,1
DA:802,9
DA:803,8
DA:804,8
DA:805,0
DA:811,1
DA:812,1
DA:813,1
DA:815,0
DA:817,1
DA:821,1
DA:826,1
DA:829,1
DA:833,1
DA:834,1
DA:837,1
DA:840,1
DA:841,1
DA:845,1
DA:846,1
DA:849,1
DA:850,1
DA:852,0
DA:856,1
DA:857,1
DA:860,1
DA:861,1
DA:862,1
DA:865,1
DA:866,1
DA:872,1
DA:873,1
DA:876,1
DA:877,1
DA:880,1
DA:882,0
DA:884,1
DA:886,0
DA:890,6
DA:891,5
DA:892,5
DA:894,5
DA:896,0
DA:898,5
DA:900,0
DA:903,1
DA:906,1
DA:907,1
DA:911,1
DA:912,1
DA:915,100
DA:916,100
DA:917,100
DA:918,100
DA:920,100
DA:921,100
DA:925,100
DA:926,100
DA:927,100
DA:929,0
DA:935,1
DA:936,1
DA:937,1
DA:939,0
DA:943,1
DA:944,1
DA:947,1
DA:950,1
DA:951,1
DA:952,1
DA:954,0
DA:956,1
DA:959,1
DA:960,1
DA:965,51
DA:966,50
DA:967,50
DA:968,50
DA:972,1
DA:973,21
DA:975,20
DA:976,20
DA:979,20
DA:980,20
DA:984,11
DA:985,10
DA:986,10
DA:988,10
DA:989,4
DA:990,6
DA:993,10
DA:994,10
DA:997,10
DA:998,10
DA:1000,1
DA:1003,1
DA:1008,1
DA:1010,1
DA:1011,1
DA:1012,1
DA:1015,8
DA:1016,8
DA:1017,8
DA:1018,8
DA:1020,8
DA:1021,8
DA:1022,8
DA:1025,272
DA:1026,264
DA:1027,55
DA:1028,55
DA:1029,55
DA:1030,55
DA:1031,55
DA:1032,55
DA:1033,55
DA:1034,55
DA:1035,55
DA:1036,53
DA:1037,53
DA:1038,53
DA:1039,53
DA:1040,53
DA:1041,53
DA:1042,53
DA:1043,53
DA:1044,53
DA:1047,288
DA:1048,240
DA:1049,240
DA:1051,0
DA:1053,264
DA:1056,8
DA:1057,8
DA:1058,8
DA:1062,1
DA:1063,9
DA:1064,8
DA:1065,8
DA:1066,0
DA:1071,1
DA:1073,9
DA:1074,8
DA:1075,8
DA:1076,0
DA:1080,8
DA:1082,0
DA:1088,1
DA:1089,1
DA:1090,1
DA:1092,0
DA:1094,1
DA:1098,1
DA:1099,1
DA:1100,1
DA:1106,1
DA:1107,1
DA:1108,1
DA:1110,2
DA:1111,2
DA:1115,2
DA:1116,2
DA:1119,1002
DA:1120,1002
DA:1121,1002
DA:1122,1002
DA:1124,1002
DA:1125,1002
DA:1128,1002
DA:1132,1002
DA:1134,1002
DA:1135,1002
DA:1137,0
DA:1143,2
DA:1144,2
DA:1145,2
DA:1147,0
DA:1151,2
DA:1154,2
DA:1155,2
DA:1156,2
DA:1158,0
DA:1160,2
DA:1164,1
DA:1167,1
DA:1170,1
DA:1179,1
DA:1190,1
DA:1191,1
DA:1192,1
DA:1193,1
DA:1194,1
DA:1195,1
DA:1196,1
DA:1197,1
DA:1198,1
DA:1201,1
DA:1210,1
DA:1220,1
DA:1221,1
DA:1222,1
DA:1223,1
DA:1224,1
DA:1225,1
DA:1226,1
DA:1227,1
DA:1228,1
DA:1229,1
DA:1232,1
DA:1235,1
DA:1238,20
DA:1239,19
DA:1240,19
DA:1241,19
DA:1242,19
DA:1243,19
DA:1244,19
DA:1245,19
DA:1246,19
DA:1250,19
DA:1251,19
DA:1252,19
DA:1253,19
DA:1254,19
DA:1255,19
DA:1256,19
DA:1257,19
DA:1260,19
DA:1261,19
DA:1264,0
DA:1265,0
DA:1270,1
DA:1273,1
DA:1274,1
DA:1277,1
DA:1278,1
DA:1279,1
DA:1280,1
DA:1281,1
DA:1282,1
DA:1283,1
DA:1284,1
DA:1286,7
DA:1288,6
DA:1291,6
DA:1294,6
DA:1295,6
DA:1298,6
DA:1299,6
DA:1302,6
DA:1304,0
DA:1307,6
DA:1309,0
DA:1312,6
DA:1314,0
DA:1318,1
DA:1321,1
DA:1322,1
DA:1325,1
DA:1326,1
DA:1327,1
DA:1328,1
DA:1329,1
DA:1330,1
DA:1333,1
DA:1336,1
DA:1337,1
DA:1338,1
DA:1341,1
DA:1343,0
DA:1345,1
DA:1347,0
DA:1349,1
DA:1351,0
DA:1353,1
DA:1355,0
DA:1357,1
DA:1359,0
DA:1361,1
DA:1363,0
DA:1367,1
DA:1368,1
DA:1370,0
DA:1374,1
DA:1376,1
DA:1377,1
DA:1379,1
DA:1383,1
DA:1385,0
DA:1389,1
DA:1390,1
DA:1391,1
DA:1393,1
DA:1395,1
DA:1396,1
DA:1398,1
DA:1402,1
DA:1404,1
DA:1405,1
DA:1407,1
DA:1411,1
DA:1413,1
DA:1414,1
DA:1416,1
DA:1421,1
DA:1423,0
DA:1425,1
DA:1427,0
DA:1430,1
DA:1431,1
DA:1433,0
DA:1435,1
DA:1438,1
DA:1441,1
DA:1444,1
DA:1449,1
DA:1450,1
DA:1451,1
DA:1452,1
DA:1453,1
DA:1454,1
DA:1455,1
DA:1456,1
DA:1457,1
DA:1458,1
DA:1461,1
DA:1462,1
DA:1463,0
DA:1464,0
DA:1468,1
DA:1469,1
DA:1471,1
DA:1472,1
DA:1475,1
DA:1476,1
DA:1477,1
DA:1478,1
DA:1481,1
DA:1484,1
DA:1487,20
DA:1489,19
DA:1490,19
DA:1491,19
DA:1492,19
DA:1493,19
DA:1494,19
DA:1495,19
DA:1496,19
DA:1500,19
DA:1501,19
DA:1502,19
DA:1503,19
DA:1504,19
DA:1505,19
DA:1506,19
DA:1507,19
DA:1510,19
DA:1512,19
DA:1513,0
DA:1514,0
DA:1518,19
DA:1520,19
DA:1521,19
DA:1523,19
DA:1529,19
DA:1532,0
DA:1533,0
DA:1536,1
DA:1539,1
DA:1540,1
DA:1545,1
DA:1546,1
DA:1547,1
DA:1550,1
DA:1551,1
DA:1552,1
DA:1553,1
DA:1556,1
DA:1557,1
DA:1558,1
DA:1561,1
DA:1562,1
DA:1563,1
DA:1564,1
DA:1565,1
DA:1568,1
DA:1569,1
DA:1570,1
DA:1572,1
DA:1573,1
DA:1574,1
DA:1575,1
DA:1578,1
DA:1579,1
DA:1580,1
DA:1581,1
DA:1582,1
DA:1583,1
DA:1584,1
DA:1587,1
DA:1591,1
DA:1593,1
DA:1594,1
DA:1595,1
DA:1598,8
DA:1599,8
DA:1600,8
DA:1601,8
DA:1604,8
DA:1614,8
DA:1615,8
DA:1616,8
DA:1620,1
DA:1621,9
DA:1622,8
DA:1623,8
DA:1626,1
DA:1629,1
DA:1630,9
DA:1631,8
DA:1633,0
DA:1638,8
DA:1639,8
DA:1640,8
DA:1641,8
DA:1642,8
DA:1643,8
DA:1644,8
DA:1645,8
DA:1649,1
DA:1650,1
DA:1652,0
DA:1654,1
DA:1657,1
DA:1661,1
DA:1670,1
DA:1671,1
DA:1678,1
DA:1679,1
DA:1680,1
DA:1682,4
DA:1683,4
DA:1684,4
DA:1685,4
DA:1688,84
DA:1689,80
DA:1690,80
DA:1691,80
DA:1692,80
DA:1694,0
DA:1700,80
DA:1701,12
DA:1702,68
DA:1705,4
DA:1706,4
DA:1707,4
DA:1711,5
DA:1712,4
DA:1713,4
DA:1717,1
DA:1718,1
DA:1721,1
DA:1722,1
DA:1723,1
DA:1726,1
DA:1729,1
DA:1734,1
DA:1736,1
DA:1739,1
DA:1740,1
DA:1742,1
DA:1745,1
DA:1748,1
DA:1750,6
DA:1751,5
DA:1752,5
DA:1753,5
DA:1754,5
DA:1756,5
DA:1757,5
DA:1761,6
DA:1762,5
DA:1764,0
DA:1768,1
BRF:0
BRH:0
LF:868
LH:814
end_of_record
SF:/Users/mr.wolf/loadingalias/crc-fast-rust/src/combine.rs
FN:178,_RNvNtCs3YYFpeUFfny_8crc_fast7combine11bit_reverse
FN:157,_RNvNtCs3YYFpeUFfny_8crc_fast7combine12reflect_poly
FN:60,_RNvNtCs3YYFpeUFfny_8crc_fast7combine16gf2_matrix_times
FN:77,_RNvNtCs3YYFpeUFfny_8crc_fast7combine17gf2_matrix_square
FN:87,_RNvNtCs3YYFpeUFfny_8crc_fast7combine9checksums
FN:178,_RNvNtCscwG700SpbJM_8crc_fast7combine11bit_reverse
FN:157,_RNvNtCscwG700SpbJM_8crc_fast7combine12reflect_poly
FN:60,_RNvNtCscwG700SpbJM_8crc_fast7combine16gf2_matrix_times
FN:77,_RNvNtCscwG700SpbJM_8crc_fast7combine17gf2_matrix_square
FN:87,_RNvNtCscwG700SpbJM_8crc_fast7combine9checksums
FNDA:2,_RNvNtCs3YYFpeUFfny_8crc_fast7combine11bit_reverse
FNDA:2,_RNvNtCs3YYFpeUFfny_8crc_fast7combine12reflect_poly
FNDA:644,_RNvNtCs3YYFpeUFfny_8crc_fast7combine16gf2_matrix_times
FNDA:10,_RNvNtCs3YYFpeUFfny_8crc_fast7combine17gf2_matrix_square
FNDA:2,_RNvNtCs3YYFpeUFfny_8crc_fast7combine9checksums
FNDA:26,_RNvNtCscwG700SpbJM_8crc_fast7combine11bit_reverse
FNDA:26,_RNvNtCscwG700SpbJM_8crc_fast7combine12reflect_poly
FNDA:13524,_RNvNtCscwG700SpbJM_8crc_fast7combine16gf2_matrix_times
FNDA:210,_RNvNtCscwG700SpbJM_8crc_fast7combine17gf2_matrix_square
FNDA:42,_RNvNtCscwG700SpbJM_8crc_fast7combine9checksums
FNF:5
FNH:5
DA:60,14168
DA:61,14168
DA:62,14168
DA:63,277703
DA:64,263535
DA:65,36276
DA:66,227259
DA:67,263535
DA:68,263535
DA:71,14168
DA:72,14168
DA:77,220
DA:78,14300
DA:79,14080
DA:80,14080
DA:81,220
DA:87,44
DA:89,44
DA:90,44
DA:94,44
DA:97,44
DA:99,28
DA:100,28
DA:101,1220
DA:102,1220
DA:103,1220
DA:104,1220
DA:105,16
DA:106,16
DA:107,656
DA:108,656
DA:109,656
DA:110,656
DA:112,16
DA:114,0
DA:118,44
DA:121,44
DA:127,88
DA:128,88
DA:129,88
DA:130,88
DA:131,88
DA:134,88
DA:135,44
DA:136,44
DA:139,44
DA:140,44
DA:141,0
DA:142,44
DA:143,44
DA:146,44
DA:147,0
DA:148,44
DA:152,44
DA:154,44
DA:155,44
DA:157,28
DA:158,28
DA:161,28
DA:165,28
DA:168,28
DA:169,11
DA:171,17
DA:175,28
DA:176,28
DA:178,28
DA:179,28
DA:181,1820
DA:182,1792
DA:183,1792
DA:184,1792
DA:185,1792
DA:187,28
DA:188,28
BRF:0
BRH:0
LF:74
LH:71
end_of_record
SF:/Users/mr.wolf/loadingalias/crc-fast-rust/src/crc32/algorithm.rs
FN:38,_RINvXNtNtCs3YYFpeUFfny_8crc_fast5crc329algorithmNtNtB7_7structs7Width32NtNtB7_6traits16EnhancedCrcWidth12create_stateNtNtNtNtB7_4arch7aarch643aes13Aarch64AesOpsEB7_
FN:38,_RINvXNtNtCs3YYFpeUFfny_8crc_fast5crc329algorithmNtNtB7_7structs7Width32NtNtB7_6traits16EnhancedCrcWidth12create_stateNtNtNtNtB7_4arch7aarch648aes_sha317Aarch64AesSha3OpsEB7_
FN:17,_RNvXNtNtCs3YYFpeUFfny_8crc_fast5crc329algorithmNtNtB6_7structs7Width32NtNtB6_6traits16EnhancedCrcWidth14load_constants
FN:236,_RINvNtNtCs3YYFpeUFfny_8crc_fast5crc329algorithm15process_0_to_15NtNtNtNtB6_4arch7aarch643aes13Aarch64AesOpsNtNtB6_7structs7Width32EB6_
FN:236,_RINvNtNtCs3YYFpeUFfny_8crc_fast5crc329algorithm15process_0_to_15NtNtNtNtB6_4arch7aarch648aes_sha317Aarch64AesSha3OpsNtNtB6_7structs7Width32EB6_
FN:107,_RINvXNtNtCs3YYFpeUFfny_8crc_fast5crc329algorithmNtNtB7_7structs7Width32NtNtB7_6traits16EnhancedCrcWidth10fold_widthNtNtNtNtB7_4arch7aarch643aes13Aarch64AesOpsEB7_
FN:107,_RINvXNtNtCs3YYFpeUFfny_8crc_fast5crc329algorithmNtNtB7_7structs7Width32NtNtB7_6traits16EnhancedCrcWidth10fold_widthNtNtNtNtB7_4arch7aarch648aes_sha317Aarch64AesSha3OpsEB7_
FN:146,_RINvXNtNtCs3YYFpeUFfny_8crc_fast5crc329algorithmNtNtB7_7structs7Width32NtNtB7_6traits16EnhancedCrcWidth17barrett_reductionNtNtNtNtB7_4arch7aarch643aes13Aarch64AesOpsEB7_
FN:146,_RINvXNtNtCs3YYFpeUFfny_8crc_fast5crc329algorithmNtNtB7_7structs7Width32NtNtB7_6traits16EnhancedCrcWidth17barrett_reductionNtNtNtNtB7_4arch7aarch648aes_sha317Aarch64AesSha3OpsEB7_
FN:188,_RINvXNtNtCs3YYFpeUFfny_8crc_fast5crc329algorithmNtNtB7_7structs7Width32NtNtB7_6traits16EnhancedCrcWidth23perform_final_reductionNtNtNtNtB7_4arch7aarch643aes13Aarch64AesOpsEB7_
FN:188,_RINvXNtNtCs3YYFpeUFfny_8crc_fast5crc329algorithmNtNtB7_7structs7Width32NtNtB7_6traits16EnhancedCrcWidth23perform_final_reductionNtNtNtNtB7_4arch7aarch648aes_sha317Aarch64AesSha3OpsEB7_
FN:62,_RINvXNtNtCs3YYFpeUFfny_8crc_fast5crc329algorithmNtNtB7_7structs7Width32NtNtB7_6traits16EnhancedCrcWidth14extract_resultNtNtNtNtB7_4arch7aarch643aes13Aarch64AesOpsEB7_
FN:62,_RINvXNtNtCs3YYFpeUFfny_8crc_fast5crc329algorithmNtNtB7_7structs7Width32NtNtB7_6traits16EnhancedCrcWidth14extract_resultNtNtNtNtB7_4arch7aarch648aes_sha317Aarch64AesSha3OpsEB7_
FN:174,_RINvXNtNtCs3YYFpeUFfny_8crc_fast5crc329algorithmNtNtB7_7structs7Width32NtNtB7_6traits16EnhancedCrcWidth18create_coefficientNtNtNtNtB7_4arch7aarch643aes13Aarch64AesOpsEB7_
FN:174,_RINvXNtNtCs3YYFpeUFfny_8crc_fast5crc329algorithmNtNtB7_7structs7Width32NtNtB7_6traits16EnhancedCrcWidth18create_coefficientNtNtNtNtB7_4arch7aarch648aes_sha317Aarch64AesSha3OpsEB7_
FN:79,_RINvXNtNtCs3YYFpeUFfny_8crc_fast5crc329algorithmNtNtB7_7structs7Width32NtNtB7_6traits16EnhancedCrcWidth7fold_16NtNtNtNtB7_4arch7aarch643aes13Aarch64AesOpsEB7_
FN:79,_RINvXNtNtCs3YYFpeUFfny_8crc_fast5crc329algorithmNtNtB7_7structs7Width32NtNtB7_6traits16EnhancedCrcWidth7fold_16NtNtNtNtB7_4arch7aarch648aes_sha317Aarch64AesSha3OpsEB7_
FN:210,_RNvXNtNtCs3YYFpeUFfny_8crc_fast5crc329algorithmNtNtB6_7structs7Width32NtNtB6_6traits16EnhancedCrcWidth24get_last_bytes_table_ptr
FN:38,_RINvXNtNtCs3YYFpeUFfny_8crc_fast5crc329algorithmNtNtB7_7structs7Width32NtNtB7_6traits16EnhancedCrcWidth12create_stateNtNtNtNtB7_4arch7aarch643aes13Aarch64AesOpsECsa96wfuC4ae_8checksum
FN:38,_RINvXNtNtCs3YYFpeUFfny_8crc_fast5crc329algorithmNtNtB7_7structs7Width32NtNtB7_6traits16EnhancedCrcWidth12create_stateNtNtNtNtB7_4arch7aarch648aes_sha317Aarch64AesSha3OpsECsa96wfuC4ae_8checksum
FN:38,_RINvXNtNtCs3YYFpeUFfny_8crc_fast5crc329algorithmNtNtB7_7structs7Width32NtNtB7_6traits16EnhancedCrcWidth12create_stateNtNtNtNtB7_4arch7aarch643aes13Aarch64AesOpsECseaXugnuoQ7h_8checksum
FN:38,_RINvXNtNtCs3YYFpeUFfny_8crc_fast5crc329algorithmNtNtB7_7structs7Width32NtNtB7_6traits16EnhancedCrcWidth12create_stateNtNtNtNtB7_4arch7aarch648aes_sha317Aarch64AesSha3OpsECseaXugnuoQ7h_8checksum
FN:107,_RINvXNtNtCscwG700SpbJM_8crc_fast5crc329algorithmNtNtB7_7structs7Width32NtNtB7_6traits16EnhancedCrcWidth10fold_widthNtNtNtNtB7_4arch7aarch643aes13Aarch64AesOpsEB7_
FN:107,_RINvXNtNtCscwG700SpbJM_8crc_fast5crc329algorithmNtNtB7_7structs7Width32NtNtB7_6traits16EnhancedCrcWidth10fold_widthNtNtNtNtB7_4arch7aarch648aes_sha317Aarch64AesSha3OpsEB7_
FN:38,_RINvXNtNtCscwG700SpbJM_8crc_fast5crc329algorithmNtNtB7_7structs7Width32NtNtB7_6traits16EnhancedCrcWidth12create_stateNtNtNtNtB7_4arch7aarch643aes13Aarch64AesOpsEB7_
FN:38,_RINvXNtNtCscwG700SpbJM_8crc_fast5crc329algorithmNtNtB7_7structs7Width32NtNtB7_6traits16EnhancedCrcWidth12create_stateNtNtNtNtB7_4arch7aarch648aes_sha317Aarch64AesSha3OpsEB7_
FN:62,_RINvXNtNtCscwG700SpbJM_8crc_fast5crc329algorithmNtNtB7_7structs7Width32NtNtB7_6traits16EnhancedCrcWidth14extract_resultNtNtNtNtB7_4arch7aarch643aes13Aarch64AesOpsEB7_
FN:62,_RINvXNtNtCscwG700SpbJM_8crc_fast5crc329algorithmNtNtB7_7structs7Width32NtNtB7_6traits16EnhancedCrcWidth14extract_resultNtNtNtNtB7_4arch7aarch648aes_sha317Aarch64AesSha3OpsEB7_
FN:146,_RINvXNtNtCscwG700SpbJM_8crc_fast5crc329algorithmNtNtB7_7structs7Width32NtNtB7_6traits16EnhancedCrcWidth17barrett_reductionNtNtNtNtB7_4arch7aarch643aes13Aarch64AesOpsEB7_
FN:146,_RINvXNtNtCscwG700SpbJM_8crc_fast5crc329algorithmNtNtB7_7structs7Width32NtNtB7_6traits16EnhancedCrcWidth17barrett_reductionNtNtNtNtB7_4arch7aarch648aes_sha317Aarch64AesSha3OpsEB7_
FN:174,_RINvXNtNtCscwG700SpbJM_8crc_fast5crc329algorithmNtNtB7_7structs7Width32NtNtB7_6traits16EnhancedCrcWidth18create_coefficientNtNtNtNtB7_4arch7aarch643aes13Aarch64AesOpsEB7_
FN:174,_RINvXNtNtCscwG700SpbJM_8crc_fast5crc329algorithmNtNtB7_7structs7Width32NtNtB7_6traits16EnhancedCrcWidth18create_coefficientNtNtNtNtB7_4arch7aarch648aes_sha317Aarch64AesSha3OpsEB7_
FN:188,_RINvXNtNtCscwG700SpbJM_8crc_fast5crc329algorithmNtNtB7_7structs7Width32NtNtB7_6traits16EnhancedCrcWidth23perform_final_reductionNtNtNtNtB7_4arch7aarch643aes13Aarch64AesOpsEB7_
FN:188,_RINvXNtNtCscwG700SpbJM_8crc_fast5crc329algorithmNtNtB7_7structs7Width32NtNtB7_6traits16EnhancedCrcWidth23perform_final_reductionNtNtNtNtB7_4arch7aarch648aes_sha317Aarch64AesSha3OpsEB7_
FN:79,_RINvXNtNtCscwG700SpbJM_8crc_fast5crc329algorithmNtNtB7_7structs7Width32NtNtB7_6traits16EnhancedCrcWidth7fold_16NtNtNtNtB7_4arch7aarch643aes13Aarch64AesOpsEB7_
FN:79,_RINvXNtNtCscwG700SpbJM_8crc_fast5crc329algorithmNtNtB7_7structs7Width32NtNtB7_6traits16EnhancedCrcWidth7fold_16NtNtNtNtB7_4arch7aarch648aes_sha317Aarch64AesSha3OpsEB7_
FN:210,_RNvXNtNtCscwG700SpbJM_8crc_fast5crc329algorithmNtNtB6_7structs7Width32NtNtB6_6traits16EnhancedCrcWidth24get_last_bytes_table_ptr
FN:236,_RINvNtNtCscwG700SpbJM_8crc_fast5crc329algorithm15process_0_to_15NtNtNtNtB6_4arch7aarch643aes13Aarch64AesOpsNtNtB6_7structs7Width32EB6_
FN:236,_RINvNtNtCscwG700SpbJM_8crc_fast5crc329algorithm15process_0_to_15NtNtNtNtB6_4arch7aarch648aes_sha317Aarch64AesSha3OpsNtNtB6_7structs7Width32EB6_
FN:17,_RNvXNtNtCscwG700SpbJM_8crc_fast5crc329algorithmNtNtB6_7structs7Width32NtNtB6_6traits16EnhancedCrcWidth14load_constants
FN:38,_RINvXNtNtCs3YYFpeUFfny_8crc_fast5crc329algorithmNtNtB7_7structs7Width32NtNtB7_6traits16EnhancedCrcWidth12create_stateNtNtNtNtB7_4arch7aarch643aes13Aarch64AesOpsECs4dsW9QDrSvF_12no_std_tests
FN:38,_RINvXNtNtCs3YYFpeUFfny_8crc_fast5crc329algorithmNtNtB7_7structs7Width32NtNtB7_6traits16EnhancedCrcWidth12create_stateNtNtNtNtB7_4arch7aarch648aes_sha317Aarch64AesSha3OpsECs4dsW9QDrSvF_12no_std_tests
FN:38,_RINvXNtNtCs3YYFpeUFfny_8crc_fast5crc329algorithmNtNtB7_7structs7Width32NtNtB7_6traits16EnhancedCrcWidth12create_stateNtNtNtNtB7_4arch7aarch643aes13Aarch64AesOpsECsiyVaUKbNjcY_10wasm_tests
FN:38,_RINvXNtNtCs3YYFpeUFfny_8crc_fast5crc329algorithmNtNtB7_7structs7Width32NtNtB7_6traits16EnhancedCrcWidth12create_stateNtNtNtNtB7_4arch7aarch648aes_sha317Aarch64AesSha3OpsECsiyVaUKbNjcY_10wasm_tests
FNDA:0,_RINvXNtNtCs3YYFpeUFfny_8crc_fast5crc329algorithmNtNtB7_7structs7Width32NtNtB7_6traits16EnhancedCrcWidth12create_stateNtNtNtNtB7_4arch7aarch643aes13Aarch64AesOpsEB7_
FNDA:0,_RINvXNtNtCs3YYFpeUFfny_8crc_fast5crc329algorithmNtNtB7_7structs7Width32NtNtB7_6traits16EnhancedCrcWidth12create_stateNtNtNtNtB7_4arch7aarch648aes_sha317Aarch64AesSha3OpsEB7_
FNDA:6,_RNvXNtNtCs3YYFpeUFfny_8crc_fast5crc329algorithmNtNtB6_7structs7Width32NtNtB6_6traits16EnhancedCrcWidth14load_constants
FNDA:0,_RINvNtNtCs3YYFpeUFfny_8crc_fast5crc329algorithm15process_0_to_15NtNtNtNtB6_4arch7aarch643aes13Aarch64AesOpsNtNtB6_7structs7Width32EB6_
FNDA:6,_RINvNtNtCs3YYFpeUFfny_8crc_fast5crc329algorithm15process_0_to_15NtNtNtNtB6_4arch7aarch648aes_sha317Aarch64AesSha3OpsNtNtB6_7structs7Width32EB6_
FNDA:0,_RINvXNtNtCs3YYFpeUFfny_8crc_fast5crc329algorithmNtNtB7_7structs7Width32NtNtB7_6traits16EnhancedCrcWidth10fold_widthNtNtNtNtB7_4arch7aarch643aes13Aarch64AesOpsEB7_
FNDA:6,_RINvXNtNtCs3YYFpeUFfny_8crc_fast5crc329algorithmNtNtB7_7structs7Width32NtNtB7_6traits16EnhancedCrcWidth10fold_widthNtNtNtNtB7_4arch7aarch648aes_sha317Aarch64AesSha3OpsEB7_
FNDA:0,_RINvXNtNtCs3YYFpeUFfny_8crc_fast5crc329algorithmNtNtB7_7structs7Width32NtNtB7_6traits16EnhancedCrcWidth17barrett_reductionNtNtNtNtB7_4arch7aarch643aes13Aarch64AesOpsEB7_
FNDA:6,_RINvXNtNtCs3YYFpeUFfny_8crc_fast5crc329algorithmNtNtB7_7structs7Width32NtNtB7_6traits16EnhancedCrcWidth17barrett_reductionNtNtNtNtB7_4arch7aarch648aes_sha317Aarch64AesSha3OpsEB7_
FNDA:0,_RINvXNtNtCs3YYFpeUFfny_8crc_fast5crc329algorithmNtNtB7_7structs7Width32NtNtB7_6traits16EnhancedCrcWidth23perform_final_reductionNtNtNtNtB7_4arch7aarch643aes13Aarch64AesOpsEB7_
FNDA:6,_RINvXNtNtCs3YYFpeUFfny_8crc_fast5crc329algorithmNtNtB7_7structs7Width32NtNtB7_6traits16EnhancedCrcWidth23perform_final_reductionNtNtNtNtB7_4arch7aarch648aes_sha317Aarch64AesSha3OpsEB7_
FNDA:0,_RINvXNtNtCs3YYFpeUFfny_8crc_fast5crc329algorithmNtNtB7_7structs7Width32NtNtB7_6traits16EnhancedCrcWidth14extract_resultNtNtNtNtB7_4arch7aarch643aes13Aarch64AesOpsEB7_
FNDA:0,_RINvXNtNtCs3YYFpeUFfny_8crc_fast5crc329algorithmNtNtB7_7structs7Width32NtNtB7_6traits16EnhancedCrcWidth14extract_resultNtNtNtNtB7_4arch7aarch648aes_sha317Aarch64AesSha3OpsEB7_
FNDA:0,_RINvXNtNtCs3YYFpeUFfny_8crc_fast5crc329algorithmNtNtB7_7structs7Width32NtNtB7_6traits16EnhancedCrcWidth18create_coefficientNtNtNtNtB7_4arch7aarch643aes13Aarch64AesOpsEB7_
FNDA:0,_RINvXNtNtCs3YYFpeUFfny_8crc_fast5crc329algorithmNtNtB7_7structs7Width32NtNtB7_6traits16EnhancedCrcWidth18create_coefficientNtNtNtNtB7_4arch7aarch648aes_sha317Aarch64AesSha3OpsEB7_
FNDA:0,_RINvXNtNtCs3YYFpeUFfny_8crc_fast5crc329algorithmNtNtB7_7structs7Width32NtNtB7_6traits16EnhancedCrcWidth7fold_16NtNtNtNtB7_4arch7aarch643aes13Aarch64AesOpsEB7_
FNDA:0,_RINvXNtNtCs3YYFpeUFfny_8crc_fast5crc329algorithmNtNtB7_7structs7Width32NtNtB7_6traits16EnhancedCrcWidth7fold_16NtNtNtNtB7_4arch7aarch648aes_sha317Aarch64AesSha3OpsEB7_
FNDA:0,_RNvXNtNtCs3YYFpeUFfny_8crc_fast5crc329algorithmNtNtB6_7structs7Width32NtNtB6_6traits16EnhancedCrcWidth24get_last_bytes_table_ptr
FNDA:0,_RINvXNtNtCs3YYFpeUFfny_8crc_fast5crc329algorithmNtNtB7_7structs7Width32NtNtB7_6traits16EnhancedCrcWidth12create_stateNtNtNtNtB7_4arch7aarch643aes13Aarch64AesOpsECsa96wfuC4ae_8checksum
FNDA:0,_RINvXNtNtCs3YYFpeUFfny_8crc_fast5crc329algorithmNtNtB7_7structs7Width32NtNtB7_6traits16EnhancedCrcWidth12create_stateNtNtNtNtB7_4arch7aarch648aes_sha317Aarch64AesSha3OpsECsa96wfuC4ae_8checksum
FNDA:0,_RINvXNtNtCs3YYFpeUFfny_8crc_fast5crc329algorithmNtNtB7_7structs7Width32NtNtB7_6traits16EnhancedCrcWidth12create_stateNtNtNtNtB7_4arch7aarch643aes13Aarch64AesOpsECseaXugnuoQ7h_8checksum
FNDA:0,_RINvXNtNtCs3YYFpeUFfny_8crc_fast5crc329algorithmNtNtB7_7structs7Width32NtNtB7_6traits16EnhancedCrcWidth12create_stateNtNtNtNtB7_4arch7aarch648aes_sha317Aarch64AesSha3OpsECseaXugnuoQ7h_8checksum
FNDA:0,_RINvXNtNtCscwG700SpbJM_8crc_fast5crc329algorithmNtNtB7_7structs7Width32NtNtB7_6traits16EnhancedCrcWidth10fold_widthNtNtNtNtB7_4arch7aarch643aes13Aarch64AesOpsEB7_
FNDA:41822,_RINvXNtNtCscwG700SpbJM_8crc_fast5crc329algorithmNtNtB7_7structs7Width32NtNtB7_6traits16EnhancedCrcWidth10fold_widthNtNtNtNtB7_4arch7aarch648aes_sha317Aarch64AesSha3OpsEB7_
FNDA:0,_RINvXNtNtCscwG700SpbJM_8crc_fast5crc329algorithmNtNtB7_7structs7Width32NtNtB7_6traits16EnhancedCrcWidth12create_stateNtNtNtNtB7_4arch7aarch643aes13Aarch64AesOpsEB7_
FNDA:42646,_RINvXNtNtCscwG700SpbJM_8crc_fast5crc329algorithmNtNtB7_7structs7Width32NtNtB7_6traits16EnhancedCrcWidth12create_stateNtNtNtNtB7_4arch7aarch648aes_sha317Aarch64AesSha3OpsEB7_
FNDA:0,_RINvXNtNtCscwG700SpbJM_8crc_fast5crc329algorithmNtNtB7_7structs7Width32NtNtB7_6traits16EnhancedCrcWidth14extract_resultNtNtNtNtB7_4arch7aarch643aes13Aarch64AesOpsEB7_
FNDA:244,_RINvXNtNtCscwG700SpbJM_8crc_fast5crc329algorithmNtNtB7_7structs7Width32NtNtB7_6traits16EnhancedCrcWidth14extract_resultNtNtNtNtB7_4arch7aarch648aes_sha317Aarch64AesSha3OpsEB7_
FNDA:0,_RINvXNtNtCscwG700SpbJM_8crc_fast5crc329algorithmNtNtB7_7structs7Width32NtNtB7_6traits16EnhancedCrcWidth17barrett_reductionNtNtNtNtB7_4arch7aarch643aes13Aarch64AesOpsEB7_
FNDA:42402,_RINvXNtNtCscwG700SpbJM_8crc_fast5crc329algorithmNtNtB7_7structs7Width32NtNtB7_6traits16EnhancedCrcWidth17barrett_reductionNtNtNtNtB7_4arch7aarch648aes_sha317Aarch64AesSha3OpsEB7_
FNDA:0,_RINvXNtNtCscwG700SpbJM_8crc_fast5crc329algorithmNtNtB7_7structs7Width32NtNtB7_6traits16EnhancedCrcWidth18create_coefficientNtNtNtNtB7_4arch7aarch643aes13Aarch64AesOpsEB7_
FNDA:194128,_RINvXNtNtCscwG700SpbJM_8crc_fast5crc329algorithmNtNtB7_7structs7Width32NtNtB7_6traits16EnhancedCrcWidth18create_coefficientNtNtNtNtB7_4arch7aarch648aes_sha317Aarch64AesSha3OpsEB7_
FNDA:0,_RINvXNtNtCscwG700SpbJM_8crc_fast5crc329algorithmNtNtB7_7structs7Width32NtNtB7_6traits16EnhancedCrcWidth23perform_final_reductionNtNtNtNtB7_4arch7aarch643aes13Aarch64AesOpsEB7_
FNDA:41822,_RINvXNtNtCscwG700SpbJM_8crc_fast5crc329algorithmNtNtB7_7structs7Width32NtNtB7_6traits16EnhancedCrcWidth23perform_final_reductionNtNtNtNtB7_4arch7aarch648aes_sha317Aarch64AesSha3OpsEB7_
FNDA:0,_RINvXNtNtCscwG700SpbJM_8crc_fast5crc329algorithmNtNtB7_7structs7Width32NtNtB7_6traits16EnhancedCrcWidth7fold_16NtNtNtNtB7_4arch7aarch643aes13Aarch64AesOpsEB7_
FNDA:4362458,_RINvXNtNtCscwG700SpbJM_8crc_fast5crc329algorithmNtNtB7_7structs7Width32NtNtB7_6traits16EnhancedCrcWidth7fold_16NtNtNtNtB7_4arch7aarch648aes_sha317Aarch64AesSha3OpsEB7_
FNDA:18504,_RNvXNtNtCscwG700SpbJM_8crc_fast5crc329algorithmNtNtB6_7structs7Width32NtNtB6_6traits16EnhancedCrcWidth24get_last_bytes_table_ptr
FNDA:0,_RINvNtNtCscwG700SpbJM_8crc_fast5crc329algorithm15process_0_to_15NtNtNtNtB6_4arch7aarch643aes13Aarch64AesOpsNtNtB6_7structs7Width32EB6_
FNDA:2828,_RINvNtNtCscwG700SpbJM_8crc_fast5crc329algorithm15process_0_to_15NtNtNtNtB6_4arch7aarch648aes_sha317Aarch64AesSha3OpsNtNtB6_7structs7Width32EB6_
FNDA:10374,_RNvXNtNtCscwG700SpbJM_8crc_fast5crc329algorithmNtNtB6_7structs7Width32NtNtB6_6traits16EnhancedCrcWidth14load_constants
FNDA:0,_RINvXNtNtCs3YYFpeUFfny_8crc_fast5crc329algorithmNtNtB7_7structs7Width32NtNtB7_6traits16EnhancedCrcWidth12create_stateNtNtNtNtB7_4arch7aarch643aes13Aarch64AesOpsECs4dsW9QDrSvF_12no_std_tests
FNDA:3,_RINvXNtNtCs3YYFpeUFfny_8crc_fast5crc329algorithmNtNtB7_7structs7Width32NtNtB7_6traits16EnhancedCrcWidth12create_stateNtNtNtNtB7_4arch7aarch648aes_sha317Aarch64AesSha3OpsECs4dsW9QDrSvF_12no_std_tests
FNDA:0,_RINvXNtNtCs3YYFpeUFfny_8crc_fast5crc329algorithmNtNtB7_7structs7Width32NtNtB7_6traits16EnhancedCrcWidth12create_stateNtNtNtNtB7_4arch7aarch643aes13Aarch64AesOpsECsiyVaUKbNjcY_10wasm_tests
FNDA:3,_RINvXNtNtCs3YYFpeUFfny_8crc_fast5crc329algorithmNtNtB7_7structs7Width32NtNtB7_6traits16EnhancedCrcWidth12create_stateNtNtNtNtB7_4arch7aarch648aes_sha317Aarch64AesSha3OpsECsiyVaUKbNjcY_10wasm_tests
FNF:10
FNH:10
DA:17,10380
DA:18,10380
DA:20,0
DA:21,0
DA:22,0
DA:23,0
DA:24,0
DA:25,0
DA:28,10380
DA:29,10380
DA:30,10380
DA:31,10380
DA:32,10380
DA:33,10380
DA:35,10380
DA:38,42652
DA:39,42652
DA:40,42652
DA:41,42652
DA:42,42652
DA:43,42652
DA:44,42652
DA:46,42652
DA:48,23253
DA:52,19399
DA:55,42652
DA:56,42652
DA:57,42652
DA:58,42652
DA:59,42652
DA:62,244
DA:63,244
DA:64,244
DA:67,244
DA:69,244
DA:71,134
DA:74,110
DA:76,244
DA:79,4362458
DA:80,4362458
DA:81,4362458
DA:82,4362458
DA:83,4362458
DA:84,4362458
DA:85,4362458
DA:88,4362458
DA:90,2409055
DA:91,2409055
DA:92,2409055
DA:93,2409055
DA:96,1953403
DA:97,1953403
DA:98,1953403
DA:99,1953403
DA:102,4362458
DA:103,4362458
DA:107,41828
DA:108,41828
DA:109,41828
DA:111,41828
DA:112,41828
DA:114,41828
DA:115,22804
DA:116,22804
DA:117,22804
DA:120,19024
DA:121,19024
DA:122,19024
DA:126,41828
DA:127,22804
DA:128,22804
DA:129,22804
DA:130,22804
DA:132,22804
DA:134,19024
DA:135,19024
DA:136,19024
DA:137,19024
DA:139,19024
DA:142,41828
DA:143,41828
DA:146,42408
DA:147,42408
DA:148,42408
DA:149,42408
DA:150,42408
DA:151,42408
DA:152,42408
DA:153,42408
DA:155,42408
DA:156,42408
DA:158,42408
DA:159,23119
DA:160,23119
DA:161,23119
DA:163,23119
DA:165,19289
DA:166,19289
DA:167,19289
DA:169,19289
DA:171,42408
DA:174,194128
DA:175,194128
DA:176,194128
DA:177,194128
DA:178,194128
DA:179,194128
DA:180,194128
DA:181,194128
DA:184,194128
DA:185,194128
DA:188,41828
DA:189,41828
DA:190,41828
DA:191,41828
DA:192,41828
DA:193,41828
DA:194,41828
DA:195,41828
DA:197,41828
DA:198,41828
DA:199,41828
DA:200,41828
DA:203,41828
DA:206,41828
DA:207,41828
DA:210,18504
DA:213,18504
DA:215,10092
DA:216,10092
DA:218,10092
DA:221,8412
DA:222,8412
DA:224,8412
DA:226,18504
DA:236,2834
DA:237,2834
DA:238,2834
DA:239,2834
DA:240,2834
DA:241,2834
DA:242,2834
DA:243,2834
DA:244,2834
DA:246,2834
DA:247,2834
DA:248,1534
DA:249,1534
DA:250,1300
DA:251,1300
DA:253,2834
DA:254,2834
DA:256,2834
DA:257,1534
DA:258,1534
DA:260,1534
DA:261,315
DA:263,1219
DA:265,1534
DA:266,1534
DA:267,1534
DA:269,1534
DA:270,1534
DA:271,315
DA:273,1219
DA:275,1534
DA:278,1300
DA:279,1300
DA:280,1300
DA:282,1300
DA:283,265
DA:284,95
DA:285,85
DA:286,85
DA:287,0
DA:290,265
DA:291,265
DA:292,265
DA:293,265
DA:294,265
DA:295,265
DA:296,265
DA:297,265
DA:299,1035
DA:301,1035
DA:302,1035
DA:303,1035
DA:304,1035
DA:305,1035
DA:307,1035
DA:308,340
DA:310,695
DA:311,695
DA:312,695
DA:313,695
DA:314,695
DA:315,695
DA:316,695
DA:317,695
DA:319,695
DA:323,2569
DA:324,2254
DA:325,315
DA:327,315
DA:328,315
DA:329,315
DA:330,315
DA:332,315
DA:333,2834
BRF:0
BRH:0
LF:209
LH:202
end_of_record
SF:/Users/mr.wolf/loadingalias/crc-fast-rust/src/crc32/fusion/aarch64/iscsi/crc_pmull.rs
FN:28,_RNvNtNtNtNtNtCs3YYFpeUFfny_8crc_fast5crc326fusion7aarch645iscsi9crc_pmull19crc32_iscsi_v12e_v1Bb_
FN:28,_RNvNtNtNtNtNtCs3YYFpeUFfny_8crc_fast5crc326fusion7aarch645iscsi9crc_pmull19crc32_iscsi_v12e_v1Csa96wfuC4ae_8checksum
FN:28,_RNvNtNtNtNtNtCs3YYFpeUFfny_8crc_fast5crc326fusion7aarch645iscsi9crc_pmull19crc32_iscsi_v12e_v1CseaXugnuoQ7h_8checksum
FN:28,_RNvNtNtNtNtNtCscwG700SpbJM_8crc_fast5crc326fusion7aarch645iscsi9crc_pmull19crc32_iscsi_v12e_v1Bb_
FN:28,_RNvNtNtNtNtNtCs3YYFpeUFfny_8crc_fast5crc326fusion7aarch645iscsi9crc_pmull19crc32_iscsi_v12e_v1Cs4dsW9QDrSvF_12no_std_tests
FN:28,_RNvNtNtNtNtNtCs3YYFpeUFfny_8crc_fast5crc326fusion7aarch645iscsi9crc_pmull19crc32_iscsi_v12e_v1CsiyVaUKbNjcY_10wasm_tests
FNDA:0,_RNvNtNtNtNtNtCs3YYFpeUFfny_8crc_fast5crc326fusion7aarch645iscsi9crc_pmull19crc32_iscsi_v12e_v1Bb_
FNDA:0,_RNvNtNtNtNtNtCs3YYFpeUFfny_8crc_fast5crc326fusion7aarch645iscsi9crc_pmull19crc32_iscsi_v12e_v1Csa96wfuC4ae_8checksum
FNDA:879235,_RNvNtNtNtNtNtCs3YYFpeUFfny_8crc_fast5crc326fusion7aarch645iscsi9crc_pmull19crc32_iscsi_v12e_v1CseaXugnuoQ7h_8checksum
FNDA:3095,_RNvNtNtNtNtNtCscwG700SpbJM_8crc_fast5crc326fusion7aarch645iscsi9crc_pmull19crc32_iscsi_v12e_v1Bb_
FNDA:2,_RNvNtNtNtNtNtCs3YYFpeUFfny_8crc_fast5crc326fusion7aarch645iscsi9crc_pmull19crc32_iscsi_v12e_v1Cs4dsW9QDrSvF_12no_std_tests
FNDA:2,_RNvNtNtNtNtNtCs3YYFpeUFfny_8crc_fast5crc326fusion7aarch645iscsi9crc_pmull19crc32_iscsi_v12e_v1CsiyVaUKbNjcY_10wasm_tests
FNF:1
FNH:1
DA:28,882334
DA:30,882403
DA:31,69
DA:32,69
DA:33,69
DA:34,69
DA:37,882334
DA:38,0
DA:39,0
DA:40,0
DA:41,882334
DA:43,882334
DA:44,2503
DA:45,2503
DA:48,2503
DA:49,2503
DA:50,2503
DA:51,2503
DA:52,2503
DA:53,2503
DA:54,2503
DA:55,2503
DA:56,2503
DA:57,2503
DA:58,2503
DA:59,2503
DA:61,2503
DA:62,2503
DA:65,2503
DA:66,2503
DA:67,2503
DA:70,17667
DA:71,15164
DA:72,15164
DA:73,15164
DA:74,15164
DA:75,15164
DA:76,15164
DA:77,15164
DA:78,15164
DA:79,15164
DA:80,15164
DA:81,15164
DA:82,15164
DA:83,15164
DA:84,15164
DA:85,15164
DA:86,15164
DA:87,15164
DA:88,15164
DA:89,15164
DA:90,15164
DA:91,15164
DA:92,15164
DA:93,15164
DA:94,15164
DA:95,15164
DA:96,15164
DA:99,2503
DA:100,2503
DA:102,2503
DA:103,2503
DA:104,2503
DA:105,2503
DA:106,2503
DA:107,2503
DA:108,2503
DA:109,2503
DA:110,2503
DA:111,2503
DA:112,2503
DA:113,2503
DA:115,2503
DA:116,2503
DA:118,2503
DA:119,2503
DA:120,2503
DA:121,2503
DA:122,2503
DA:123,2503
DA:125,2503
DA:126,2503
DA:128,2503
DA:129,2503
DA:130,2503
DA:131,2503
DA:132,2503
DA:135,2503
DA:136,2503
DA:137,2503
DA:138,879831
DA:140,882334
DA:142,2791
DA:144,2791
DA:145,2791
DA:148,2791
DA:149,2791
DA:150,2791
DA:151,2791
DA:154,16155
DA:155,13364
DA:156,13364
DA:157,13364
DA:158,13364
DA:159,13364
DA:162,2791
DA:163,2791
DA:164,879543
DA:166,883872
DA:167,1538
DA:168,1538
DA:169,1538
DA:170,1538
DA:172,4410120
DA:173,3527786
DA:174,3527786
DA:175,3527786
DA:176,3527786
DA:178,882334
DA:179,882334
BRF:0
BRH:0
LF:120
LH:117
end_of_record
SF:/Users/mr.wolf/loadingalias/crc-fast-rust/src/crc32/fusion/aarch64/iscsi/crc_pmull_sha3.rs
FN:228,_RNvNtNtNtNtNtCs3YYFpeUFfny_8crc_fast5crc326fusion7aarch645iscsi14crc_pmull_sha315crc_shift_iscsiBb_
FN:235,_RNvNtNtNtNtNtCs3YYFpeUFfny_8crc_fast5crc326fusion7aarch645iscsi14crc_pmull_sha318xnmodp_crc32_iscsiBb_
FN:29,_RNvNtNtNtNtNtCs3YYFpeUFfny_8crc_fast5crc326fusion7aarch645iscsi14crc_pmull_sha327crc32_iscsi_eor3_v9s3x2e_s3Bb_
FN:228,_RNvNtNtNtNtNtCs3YYFpeUFfny_8crc_fast5crc326fusion7aarch645iscsi14crc_pmull_sha315crc_shift_iscsiCsa96wfuC4ae_8checksum
FN:235,_RNvNtNtNtNtNtCs3YYFpeUFfny_8crc_fast5crc326fusion7aarch645iscsi14crc_pmull_sha318xnmodp_crc32_iscsiCsa96wfuC4ae_8checksum
FN:29,_RNvNtNtNtNtNtCs3YYFpeUFfny_8crc_fast5crc326fusion7aarch645iscsi14crc_pmull_sha327crc32_iscsi_eor3_v9s3x2e_s3Csa96wfuC4ae_8checksum
FN:228,_RNvNtNtNtNtNtCs3YYFpeUFfny_8crc_fast5crc326fusion7aarch645iscsi14crc_pmull_sha315crc_shift_iscsiCseaXugnuoQ7h_8checksum
FN:235,_RNvNtNtNtNtNtCs3YYFpeUFfny_8crc_fast5crc326fusion7aarch645iscsi14crc_pmull_sha318xnmodp_crc32_iscsiCseaXugnuoQ7h_8checksum
FN:29,_RNvNtNtNtNtNtCs3YYFpeUFfny_8crc_fast5crc326fusion7aarch645iscsi14crc_pmull_sha327crc32_iscsi_eor3_v9s3x2e_s3CseaXugnuoQ7h_8checksum
FN:228,_RNvNtNtNtNtNtCscwG700SpbJM_8crc_fast5crc326fusion7aarch645iscsi14crc_pmull_sha315crc_shift_iscsiBb_
FN:235,_RNvNtNtNtNtNtCscwG700SpbJM_8crc_fast5crc326fusion7aarch645iscsi14crc_pmull_sha318xnmodp_crc32_iscsiBb_
FN:29,_RNvNtNtNtNtNtCscwG700SpbJM_8crc_fast5crc326fusion7aarch645iscsi14crc_pmull_sha327crc32_iscsi_eor3_v9s3x2e_s3Bb_
FN:228,_RNvNtNtNtNtNtCs3YYFpeUFfny_8crc_fast5crc326fusion7aarch645iscsi14crc_pmull_sha315crc_shift_iscsiCs4dsW9QDrSvF_12no_std_tests
FN:235,_RNvNtNtNtNtNtCs3YYFpeUFfny_8crc_fast5crc326fusion7aarch645iscsi14crc_pmull_sha318xnmodp_crc32_iscsiCs4dsW9QDrSvF_12no_std_tests
FN:29,_RNvNtNtNtNtNtCs3YYFpeUFfny_8crc_fast5crc326fusion7aarch645iscsi14crc_pmull_sha327crc32_iscsi_eor3_v9s3x2e_s3Cs4dsW9QDrSvF_12no_std_tests
FN:228,_RNvNtNtNtNtNtCs3YYFpeUFfny_8crc_fast5crc326fusion7aarch645iscsi14crc_pmull_sha315crc_shift_iscsiCsiyVaUKbNjcY_10wasm_tests
FN:235,_RNvNtNtNtNtNtCs3YYFpeUFfny_8crc_fast5crc326fusion7aarch645iscsi14crc_pmull_sha318xnmodp_crc32_iscsiCsiyVaUKbNjcY_10wasm_tests
FN:29,_RNvNtNtNtNtNtCs3YYFpeUFfny_8crc_fast5crc326fusion7aarch645iscsi14crc_pmull_sha327crc32_iscsi_eor3_v9s3x2e_s3CsiyVaUKbNjcY_10wasm_tests
FNDA:0,_RNvNtNtNtNtNtCs3YYFpeUFfny_8crc_fast5crc326fusion7aarch645iscsi14crc_pmull_sha315crc_shift_iscsiBb_
FNDA:0,_RNvNtNtNtNtNtCs3YYFpeUFfny_8crc_fast5crc326fusion7aarch645iscsi14crc_pmull_sha318xnmodp_crc32_iscsiBb_
FNDA:0,_RNvNtNtNtNtNtCs3YYFpeUFfny_8crc_fast5crc326fusion7aarch645iscsi14crc_pmull_sha327crc32_iscsi_eor3_v9s3x2e_s3Bb_
FNDA:0,_RNvNtNtNtNtNtCs3YYFpeUFfny_8crc_fast5crc326fusion7aarch645iscsi14crc_pmull_sha315crc_shift_iscsiCsa96wfuC4ae_8checksum
FNDA:0,_RNvNtNtNtNtNtCs3YYFpeUFfny_8crc_fast5crc326fusion7aarch645iscsi14crc_pmull_sha318xnmodp_crc32_iscsiCsa96wfuC4ae_8checksum
FNDA:0,_RNvNtNtNtNtNtCs3YYFpeUFfny_8crc_fast5crc326fusion7aarch645iscsi14crc_pmull_sha327crc32_iscsi_eor3_v9s3x2e_s3Csa96wfuC4ae_8checksum
FNDA:0,_RNvNtNtNtNtNtCs3YYFpeUFfny_8crc_fast5crc326fusion7aarch645iscsi14crc_pmull_sha315crc_shift_iscsiCseaXugnuoQ7h_8checksum
FNDA:0,_RNvNtNtNtNtNtCs3YYFpeUFfny_8crc_fast5crc326fusion7aarch645iscsi14crc_pmull_sha318xnmodp_crc32_iscsiCseaXugnuoQ7h_8checksum
FNDA:0,_RNvNtNtNtNtNtCs3YYFpeUFfny_8crc_fast5crc326fusion7aarch645iscsi14crc_pmull_sha327crc32_iscsi_eor3_v9s3x2e_s3CseaXugnuoQ7h_8checksum
FNDA:4200,_RNvNtNtNtNtNtCscwG700SpbJM_8crc_fast5crc326fusion7aarch645iscsi14crc_pmull_sha315crc_shift_iscsiBb_
FNDA:4200,_RNvNtNtNtNtNtCscwG700SpbJM_8crc_fast5crc326fusion7aarch645iscsi14crc_pmull_sha318xnmodp_crc32_iscsiBb_
FNDA:1031,_RNvNtNtNtNtNtCscwG700SpbJM_8crc_fast5crc326fusion7aarch645iscsi14crc_pmull_sha327crc32_iscsi_eor3_v9s3x2e_s3Bb_
FNDA:0,_RNvNtNtNtNtNtCs3YYFpeUFfny_8crc_fast5crc326fusion7aarch645iscsi14crc_pmull_sha315crc_shift_iscsiCs4dsW9QDrSvF_12no_std_tests
FNDA:0,_RNvNtNtNtNtNtCs3YYFpeUFfny_8crc_fast5crc326fusion7aarch645iscsi14crc_pmull_sha318xnmodp_crc32_iscsiCs4dsW9QDrSvF_12no_std_tests
FNDA:0,_RNvNtNtNtNtNtCs3YYFpeUFfny_8crc_fast5crc326fusion7aarch645iscsi14crc_pmull_sha327crc32_iscsi_eor3_v9s3x2e_s3Cs4dsW9QDrSvF_12no_std_tests
FNDA:0,_RNvNtNtNtNtNtCs3YYFpeUFfny_8crc_fast5crc326fusion7aarch645iscsi14crc_pmull_sha315crc_shift_iscsiCsiyVaUKbNjcY_10wasm_tests
FNDA:0,_RNvNtNtNtNtNtCs3YYFpeUFfny_8crc_fast5crc326fusion7aarch645iscsi14crc_pmull_sha318xnmodp_crc32_iscsiCsiyVaUKbNjcY_10wasm_tests
FNDA:0,_RNvNtNtNtNtNtCs3YYFpeUFfny_8crc_fast5crc326fusion7aarch645iscsi14crc_pmull_sha327crc32_iscsi_eor3_v9s3x2e_s3CsiyVaUKbNjcY_10wasm_tests
FNF:3
FNH:3
DA:29,1031
DA:30,1031
DA:31,1031
DA:32,1031
DA:33,1031
DA:35,1031
DA:36,0
DA:37,0
DA:38,0
DA:39,0
DA:42,1031
DA:43,0
DA:44,0
DA:45,0
DA:46,1031
DA:48,1031
DA:49,840
DA:50,840
DA:51,840
DA:52,840
DA:53,840
DA:54,840
DA:55,840
DA:58,840
DA:59,840
DA:60,840
DA:61,840
DA:62,840
DA:63,840
DA:64,840
DA:65,840
DA:66,840
DA:68,840
DA:69,840
DA:70,840
DA:73,35352
DA:74,34512
DA:75,34512
DA:76,34512
DA:77,34512
DA:78,34512
DA:79,34512
DA:80,34512
DA:81,34512
DA:82,34512
DA:83,34512
DA:84,34512
DA:85,34512
DA:86,34512
DA:87,34512
DA:88,34512
DA:89,34512
DA:90,34512
DA:91,34512
DA:92,34512
DA:93,34512
DA:94,34512
DA:95,34512
DA:96,34512
DA:97,34512
DA:98,34512
DA:99,34512
DA:100,34512
DA:101,34512
DA:102,34512
DA:103,34512
DA:104,34512
DA:105,34512
DA:106,34512
DA:107,34512
DA:108,34512
DA:109,34512
DA:110,34512
DA:111,34512
DA:112,34512
DA:115,840
DA:116,840
DA:118,840
DA:119,840
DA:120,840
DA:121,840
DA:122,840
DA:123,840
DA:124,840
DA:125,840
DA:126,840
DA:127,840
DA:129,840
DA:130,840
DA:131,840
DA:132,840
DA:133,840
DA:134,840
DA:135,840
DA:136,840
DA:138,840
DA:139,840
DA:140,840
DA:141,840
DA:143,840
DA:144,840
DA:146,840
DA:147,840
DA:148,840
DA:149,840
DA:151,840
DA:152,840
DA:154,840
DA:155,840
DA:157,840
DA:158,840
DA:159,840
DA:162,840
DA:163,840
DA:164,840
DA:165,840
DA:166,840
DA:167,840
DA:169,840
DA:170,840
DA:171,840
DA:172,840
DA:175,840
DA:176,840
DA:178,840
DA:179,840
DA:180,191
DA:182,1031
DA:183,840
DA:184,840
DA:185,840
DA:189,3136
DA:190,3136
DA:191,3136
DA:192,3136
DA:193,3136
DA:194,3136
DA:195,840
DA:196,2296
DA:199,840
DA:200,840
DA:201,840
DA:204,840
DA:205,840
DA:206,840
DA:207,840
DA:208,840
DA:209,191
DA:211,2108
DA:212,1077
DA:213,1077
DA:214,1077
DA:215,1077
DA:217,4636
DA:218,3605
DA:219,3605
DA:220,3605
DA:221,3605
DA:223,1031
DA:224,1031
DA:228,4200
DA:229,4200
DA:230,4200
DA:235,4200
DA:236,4200
DA:240,16941
DA:241,12741
DA:242,12741
DA:243,12741
DA:244,4200
DA:245,4200
DA:246,4200
DA:248,18723
DA:249,14523
DA:250,14523
DA:251,14523
DA:252,14523
DA:255,16941
DA:256,16941
DA:257,16941
DA:258,12741
DA:259,12741
DA:260,12741
DA:261,12741
DA:262,12741
DA:263,12741
DA:264,12741
DA:265,4200
DA:266,4200
BRF:0
BRH:0
LF:189
LH:182
end_of_record
SF:/Users/mr.wolf/loadingalias/crc-fast-rust/src/crc32/fusion/aarch64/iso_hdlc/crc_pmull.rs
FN:28,_RNvNtNtNtNtNtCs3YYFpeUFfny_8crc_fast5crc326fusion7aarch648iso_hdlc9crc_pmull22crc32_iso_hdlc_v12e_v1Bb_
FN:28,_RNvNtNtNtNtNtCs3YYFpeUFfny_8crc_fast5crc326fusion7aarch648iso_hdlc9crc_pmull22crc32_iso_hdlc_v12e_v1Csa96wfuC4ae_8checksum
FN:28,_RNvNtNtNtNtNtCs3YYFpeUFfny_8crc_fast5crc326fusion7aarch648iso_hdlc9crc_pmull22crc32_iso_hdlc_v12e_v1CseaXugnuoQ7h_8checksum
FN:28,_RNvNtNtNtNtNtCscwG700SpbJM_8crc_fast5crc326fusion7aarch648iso_hdlc9crc_pmull22crc32_iso_hdlc_v12e_v1Bb_
FN:28,_RNvNtNtNtNtNtCs3YYFpeUFfny_8crc_fast5crc326fusion7aarch648iso_hdlc9crc_pmull22crc32_iso_hdlc_v12e_v1Cs4dsW9QDrSvF_12no_std_tests
FN:28,_RNvNtNtNtNtNtCs3YYFpeUFfny_8crc_fast5crc326fusion7aarch648iso_hdlc9crc_pmull22crc32_iso_hdlc_v12e_v1CsiyVaUKbNjcY_10wasm_tests
FNDA:0,_RNvNtNtNtNtNtCs3YYFpeUFfny_8crc_fast5crc326fusion7aarch648iso_hdlc9crc_pmull22crc32_iso_hdlc_v12e_v1Bb_
FNDA:0,_RNvNtNtNtNtNtCs3YYFpeUFfny_8crc_fast5crc326fusion7aarch648iso_hdlc9crc_pmull22crc32_iso_hdlc_v12e_v1Csa96wfuC4ae_8checksum
FNDA:0,_RNvNtNtNtNtNtCs3YYFpeUFfny_8crc_fast5crc326fusion7aarch648iso_hdlc9crc_pmull22crc32_iso_hdlc_v12e_v1CseaXugnuoQ7h_8checksum
FNDA:3095,_RNvNtNtNtNtNtCscwG700SpbJM_8crc_fast5crc326fusion7aarch648iso_hdlc9crc_pmull22crc32_iso_hdlc_v12e_v1Bb_
FNDA:19,_RNvNtNtNtNtNtCs3YYFpeUFfny_8crc_fast5crc326fusion7aarch648iso_hdlc9crc_pmull22crc32_iso_hdlc_v12e_v1Cs4dsW9QDrSvF_12no_std_tests
FNDA:18,_RNvNtNtNtNtNtCs3YYFpeUFfny_8crc_fast5crc326fusion7aarch648iso_hdlc9crc_pmull22crc32_iso_hdlc_v12e_v1CsiyVaUKbNjcY_10wasm_tests
FNF:1
FNH:1
DA:28,3132
DA:29,3132
DA:30,3132
DA:31,3132
DA:32,3132
DA:34,3265
DA:35,133
DA:36,133
DA:37,133
DA:38,133
DA:41,3132
DA:42,5
DA:43,5
DA:44,5
DA:45,3127
DA:47,3132
DA:48,2505
DA:49,2505
DA:52,2505
DA:53,2505
DA:54,2505
DA:55,2505
DA:56,2505
DA:57,2505
DA:58,2505
DA:59,2505
DA:60,2505
DA:61,2505
DA:62,2505
DA:63,2505
DA:66,2505
DA:67,2505
DA:70,2505
DA:71,2505
DA:72,2505
DA:75,17677
DA:76,15172
DA:77,15172
DA:78,15172
DA:79,15172
DA:80,15172
DA:81,15172
DA:82,15172
DA:83,15172
DA:84,15172
DA:85,15172
DA:86,15172
DA:87,15172
DA:88,15172
DA:89,15172
DA:90,15172
DA:91,15172
DA:92,15172
DA:93,15172
DA:94,15172
DA:95,15172
DA:96,15172
DA:97,15172
DA:98,15172
DA:99,15172
DA:100,15172
DA:101,15172
DA:104,2505
DA:105,2505
DA:107,2505
DA:108,2505
DA:109,2505
DA:110,2505
DA:111,2505
DA:112,2505
DA:113,2505
DA:114,2505
DA:115,2505
DA:116,2505
DA:117,2505
DA:118,2505
DA:120,2505
DA:121,2505
DA:123,2505
DA:124,2505
DA:125,2505
DA:126,2505
DA:127,2505
DA:128,2505
DA:130,2505
DA:131,2505
DA:133,2505
DA:134,2505
DA:135,2505
DA:136,2505
DA:137,2505
DA:140,2505
DA:141,2505
DA:142,2505
DA:143,627
DA:145,3132
DA:147,2798
DA:149,2798
DA:150,2798
DA:153,2798
DA:154,2798
DA:155,2798
DA:156,2798
DA:159,16192
DA:160,13394
DA:161,13394
DA:162,13394
DA:163,13394
DA:164,13394
DA:167,2798
DA:168,2798
DA:169,334
DA:171,4675
DA:172,1543
DA:173,1543
DA:174,1543
DA:175,1543
DA:177,14080
DA:178,10948
DA:179,10948
DA:180,10948
DA:181,10948
DA:183,3132
DA:184,3132
BRF:0
BRH:0
LF:124
LH:124
end_of_record
SF:/Users/mr.wolf/loadingalias/crc-fast-rust/src/crc32/fusion/aarch64/iso_hdlc/crc_pmull_sha3.rs
FN:236,_RNvNtNtNtNtNtCs3YYFpeUFfny_8crc_fast5crc326fusion7aarch648iso_hdlc14crc_pmull_sha315xnmodp_iso_hdlcBb_
FN:229,_RNvNtNtNtNtNtCs3YYFpeUFfny_8crc_fast5crc326fusion7aarch648iso_hdlc14crc_pmull_sha318crc_shift_iso_hdlcBb_
FN:29,_RNvNtNtNtNtNtCs3YYFpeUFfny_8crc_fast5crc326fusion7aarch648iso_hdlc14crc_pmull_sha330crc32_iso_hdlc_eor3_v9s3x2e_s3Bb_
FN:236,_RNvNtNtNtNtNtCs3YYFpeUFfny_8crc_fast5crc326fusion7aarch648iso_hdlc14crc_pmull_sha315xnmodp_iso_hdlcCsa96wfuC4ae_8checksum
FN:229,_RNvNtNtNtNtNtCs3YYFpeUFfny_8crc_fast5crc326fusion7aarch648iso_hdlc14crc_pmull_sha318crc_shift_iso_hdlcCsa96wfuC4ae_8checksum
FN:29,_RNvNtNtNtNtNtCs3YYFpeUFfny_8crc_fast5crc326fusion7aarch648iso_hdlc14crc_pmull_sha330crc32_iso_hdlc_eor3_v9s3x2e_s3Csa96wfuC4ae_8checksum
FN:236,_RNvNtNtNtNtNtCs3YYFpeUFfny_8crc_fast5crc326fusion7aarch648iso_hdlc14crc_pmull_sha315xnmodp_iso_hdlcCseaXugnuoQ7h_8checksum
FN:229,_RNvNtNtNtNtNtCs3YYFpeUFfny_8crc_fast5crc326fusion7aarch648iso_hdlc14crc_pmull_sha318crc_shift_iso_hdlcCseaXugnuoQ7h_8checksum
FN:29,_RNvNtNtNtNtNtCs3YYFpeUFfny_8crc_fast5crc326fusion7aarch648iso_hdlc14crc_pmull_sha330crc32_iso_hdlc_eor3_v9s3x2e_s3CseaXugnuoQ7h_8checksum
FN:236,_RNvNtNtNtNtNtCscwG700SpbJM_8crc_fast5crc326fusion7aarch648iso_hdlc14crc_pmull_sha315xnmodp_iso_hdlcBb_
FN:229,_RNvNtNtNtNtNtCscwG700SpbJM_8crc_fast5crc326fusion7aarch648iso_hdlc14crc_pmull_sha318crc_shift_iso_hdlcBb_
FN:29,_RNvNtNtNtNtNtCscwG700SpbJM_8crc_fast5crc326fusion7aarch648iso_hdlc14crc_pmull_sha330crc32_iso_hdlc_eor3_v9s3x2e_s3Bb_
FN:236,_RNvNtNtNtNtNtCs3YYFpeUFfny_8crc_fast5crc326fusion7aarch648iso_hdlc14crc_pmull_sha315xnmodp_iso_hdlcCs4dsW9QDrSvF_12no_std_tests
FN:229,_RNvNtNtNtNtNtCs3YYFpeUFfny_8crc_fast5crc326fusion7aarch648iso_hdlc14crc_pmull_sha318crc_shift_iso_hdlcCs4dsW9QDrSvF_12no_std_tests
FN:29,_RNvNtNtNtNtNtCs3YYFpeUFfny_8crc_fast5crc326fusion7aarch648iso_hdlc14crc_pmull_sha330crc32_iso_hdlc_eor3_v9s3x2e_s3Cs4dsW9QDrSvF_12no_std_tests
FN:236,_RNvNtNtNtNtNtCs3YYFpeUFfny_8crc_fast5crc326fusion7aarch648iso_hdlc14crc_pmull_sha315xnmodp_iso_hdlcCsiyVaUKbNjcY_10wasm_tests
FN:229,_RNvNtNtNtNtNtCs3YYFpeUFfny_8crc_fast5crc326fusion7aarch648iso_hdlc14crc_pmull_sha318crc_shift_iso_hdlcCsiyVaUKbNjcY_10wasm_tests
FN:29,_RNvNtNtNtNtNtCs3YYFpeUFfny_8crc_fast5crc326fusion7aarch648iso_hdlc14crc_pmull_sha330crc32_iso_hdlc_eor3_v9s3x2e_s3CsiyVaUKbNjcY_10wasm_tests
FNDA:0,_RNvNtNtNtNtNtCs3YYFpeUFfny_8crc_fast5crc326fusion7aarch648iso_hdlc14crc_pmull_sha315xnmodp_iso_hdlcBb_
FNDA:0,_RNvNtNtNtNtNtCs3YYFpeUFfny_8crc_fast5crc326fusion7aarch648iso_hdlc14crc_pmull_sha318crc_shift_iso_hdlcBb_
FNDA:0,_RNvNtNtNtNtNtCs3YYFpeUFfny_8crc_fast5crc326fusion7aarch648iso_hdlc14crc_pmull_sha330crc32_iso_hdlc_eor3_v9s3x2e_s3Bb_
FNDA:0,_RNvNtNtNtNtNtCs3YYFpeUFfny_8crc_fast5crc326fusion7aarch648iso_hdlc14crc_pmull_sha315xnmodp_iso_hdlcCsa96wfuC4ae_8checksum
FNDA:0,_RNvNtNtNtNtNtCs3YYFpeUFfny_8crc_fast5crc326fusion7aarch648iso_hdlc14crc_pmull_sha318crc_shift_iso_hdlcCsa96wfuC4ae_8checksum
FNDA:0,_RNvNtNtNtNtNtCs3YYFpeUFfny_8crc_fast5crc326fusion7aarch648iso_hdlc14crc_pmull_sha330crc32_iso_hdlc_eor3_v9s3x2e_s3Csa96wfuC4ae_8checksum
FNDA:0,_RNvNtNtNtNtNtCs3YYFpeUFfny_8crc_fast5crc326fusion7aarch648iso_hdlc14crc_pmull_sha315xnmodp_iso_hdlcCseaXugnuoQ7h_8checksum
FNDA:0,_RNvNtNtNtNtNtCs3YYFpeUFfny_8crc_fast5crc326fusion7aarch648iso_hdlc14crc_pmull_sha318crc_shift_iso_hdlcCseaXugnuoQ7h_8checksum
FNDA:0,_RNvNtNtNtNtNtCs3YYFpeUFfny_8crc_fast5crc326fusion7aarch648iso_hdlc14crc_pmull_sha330crc32_iso_hdlc_eor3_v9s3x2e_s3CseaXugnuoQ7h_8checksum
FNDA:4200,_RNvNtNtNtNtNtCscwG700SpbJM_8crc_fast5crc326fusion7aarch648iso_hdlc14crc_pmull_sha315xnmodp_iso_hdlcBb_
FNDA:4200,_RNvNtNtNtNtNtCscwG700SpbJM_8crc_fast5crc326fusion7aarch648iso_hdlc14crc_pmull_sha318crc_shift_iso_hdlcBb_
FNDA:1031,_RNvNtNtNtNtNtCscwG700SpbJM_8crc_fast5crc326fusion7aarch648iso_hdlc14crc_pmull_sha330crc32_iso_hdlc_eor3_v9s3x2e_s3Bb_
FNDA:0,_RNvNtNtNtNtNtCs3YYFpeUFfny_8crc_fast5crc326fusion7aarch648iso_hdlc14crc_pmull_sha315xnmodp_iso_hdlcCs4dsW9QDrSvF_12no_std_tests
FNDA:0,_RNvNtNtNtNtNtCs3YYFpeUFfny_8crc_fast5crc326fusion7aarch648iso_hdlc14crc_pmull_sha318crc_shift_iso_hdlcCs4dsW9QDrSvF_12no_std_tests
FNDA:0,_RNvNtNtNtNtNtCs3YYFpeUFfny_8crc_fast5crc326fusion7aarch648iso_hdlc14crc_pmull_sha330crc32_iso_hdlc_eor3_v9s3x2e_s3Cs4dsW9QDrSvF_12no_std_tests
FNDA:0,_RNvNtNtNtNtNtCs3YYFpeUFfny_8crc_fast5crc326fusion7aarch648iso_hdlc14crc_pmull_sha315xnmodp_iso_hdlcCsiyVaUKbNjcY_10wasm_tests
FNDA:0,_RNvNtNtNtNtNtCs3YYFpeUFfny_8crc_fast5crc326fusion7aarch648iso_hdlc14crc_pmull_sha318crc_shift_iso_hdlcCsiyVaUKbNjcY_10wasm_tests
FNDA:0,_RNvNtNtNtNtNtCs3YYFpeUFfny_8crc_fast5crc326fusion7aarch648iso_hdlc14crc_pmull_sha330crc32_iso_hdlc_eor3_v9s3x2e_s3CsiyVaUKbNjcY_10wasm_tests
FNF:3
FNH:3
DA:29,1031
DA:30,1031
DA:31,1031
DA:32,1031
DA:33,1031
DA:35,1031
DA:36,0
DA:37,0
DA:38,0
DA:39,0
DA:42,1031
DA:43,0
DA:44,0
DA:45,0
DA:46,1031
DA:48,1031
DA:49,840
DA:50,840
DA:51,840
DA:52,840
DA:53,840
DA:54,840
DA:55,840
DA:58,840
DA:59,840
DA:60,840
DA:61,840
DA:62,840
DA:63,840
DA:64,840
DA:65,840
DA:66,840
DA:69,840
DA:70,840
DA:71,840
DA:74,35352
DA:75,34512
DA:76,34512
DA:77,34512
DA:78,34512
DA:79,34512
DA:80,34512
DA:81,34512
DA:82,34512
DA:83,34512
DA:84,34512
DA:85,34512
DA:86,34512
DA:87,34512
DA:88,34512
DA:89,34512
DA:90,34512
DA:91,34512
DA:92,34512
DA:93,34512
DA:94,34512
DA:95,34512
DA:96,34512
DA:97,34512
DA:98,34512
DA:99,34512
DA:100,34512
DA:101,34512
DA:102,34512
DA:103,34512
DA:104,34512
DA:105,34512
DA:106,34512
DA:107,34512
DA:108,34512
DA:109,34512
DA:110,34512
DA:111,34512
DA:112,34512
DA:113,34512
DA:116,840
DA:117,840
DA:119,840
DA:120,840
DA:121,840
DA:122,840
DA:123,840
DA:124,840
DA:125,840
DA:126,840
DA:127,840
DA:128,840
DA:130,840
DA:131,840
DA:132,840
DA:133,840
DA:134,840
DA:135,840
DA:136,840
DA:137,840
DA:139,840
DA:140,840
DA:141,840
DA:142,840
DA:144,840
DA:145,840
DA:147,840
DA:148,840
DA:149,840
DA:150,840
DA:152,840
DA:153,840
DA:155,840
DA:156,840
DA:158,840
DA:159,840
DA:160,840
DA:163,840
DA:164,840
DA:165,840
DA:166,840
DA:167,840
DA:168,840
DA:170,840
DA:171,840
DA:172,840
DA:173,840
DA:176,840
DA:177,840
DA:179,840
DA:180,840
DA:181,191
DA:183,1031
DA:184,840
DA:185,840
DA:186,840
DA:190,3136
DA:191,3136
DA:192,3136
DA:193,3136
DA:194,3136
DA:195,3136
DA:196,840
DA:197,2296
DA:200,840
DA:201,840
DA:202,840
DA:205,840
DA:206,840
DA:207,840
DA:208,840
DA:209,840
DA:210,191
DA:212,2108
DA:213,1077
DA:214,1077
DA:215,1077
DA:216,1077
DA:218,4636
DA:219,3605
DA:220,3605
DA:221,3605
DA:222,3605
DA:224,1031
DA:225,1031
DA:229,4200
DA:230,4200
DA:231,4200
DA:236,4200
DA:237,4200
DA:241,16941
DA:242,12741
DA:243,12741
DA:244,12741
DA:245,4200
DA:246,4200
DA:247,4200
DA:249,18723
DA:250,14523
DA:251,14523
DA:252,14523
DA:253,14523
DA:256,16941
DA:257,16941
DA:258,16941
DA:259,12741
DA:260,12741
DA:261,12741
DA:262,12741
DA:263,12741
DA:264,12741
DA:265,12741
DA:266,4200
DA:267,4200
BRF:0
BRH:0
LF:189
LH:182
end_of_record
SF:/Users/mr.wolf/loadingalias/crc-fast-rust/src/crc32/fusion/aarch64/mod.rs
FN:117,_RNvNtNtNtCs3YYFpeUFfny_8crc_fast5crc326fusion7aarch6412clmul_scalarB7_
FN:73,_RNvNtNtNtCs3YYFpeUFfny_8crc_fast5crc326fusion7aarch6415crc32_iscsi_aesB7_
FN:131,_RNvNtNtNtCs3YYFpeUFfny_8crc_fast5crc326fusion7aarch6416clmul_hi_and_xorB7_
FN:125,_RNvNtNtNtCs3YYFpeUFfny_8crc_fast5crc326fusion7aarch6416clmul_lo_and_xorB7_
FN:95,_RNvNtNtNtCs3YYFpeUFfny_8crc_fast5crc326fusion7aarch6418crc32_iso_hdlc_aesB7_
FN:58,_RNvNtNtNtCs3YYFpeUFfny_8crc_fast5crc326fusion7aarch6420crc32_iscsi_aes_sha3B7_
FN:80,_RNvNtNtNtCs3YYFpeUFfny_8crc_fast5crc326fusion7aarch6423crc32_iso_hdlc_aes_sha3B7_
FN:109,_RNvNtNtNtCs3YYFpeUFfny_8crc_fast5crc326fusion7aarch648clmul_hiB7_
FN:101,_RNvNtNtNtCs3YYFpeUFfny_8crc_fast5crc326fusion7aarch648clmul_loB7_
FN:28,_RNvNtNtNtCs3YYFpeUFfny_8crc_fast5crc326fusion7aarch6411crc32_iscsi
FN:42,_RNvNtNtNtCs3YYFpeUFfny_8crc_fast5crc326fusion7aarch6414crc32_iso_hdlc
FN:117,_RNvNtNtNtCs3YYFpeUFfny_8crc_fast5crc326fusion7aarch6412clmul_scalarCsa96wfuC4ae_8checksum
FN:73,_RNvNtNtNtCs3YYFpeUFfny_8crc_fast5crc326fusion7aarch6415crc32_iscsi_aesCsa96wfuC4ae_8checksum
FN:131,_RNvNtNtNtCs3YYFpeUFfny_8crc_fast5crc326fusion7aarch6416clmul_hi_and_xorCsa96wfuC4ae_8checksum
FN:125,_RNvNtNtNtCs3YYFpeUFfny_8crc_fast5crc326fusion7aarch6416clmul_lo_and_xorCsa96wfuC4ae_8checksum
FN:95,_RNvNtNtNtCs3YYFpeUFfny_8crc_fast5crc326fusion7aarch6418crc32_iso_hdlc_aesCsa96wfuC4ae_8checksum
FN:58,_RNvNtNtNtCs3YYFpeUFfny_8crc_fast5crc326fusion7aarch6420crc32_iscsi_aes_sha3Csa96wfuC4ae_8checksum
FN:80,_RNvNtNtNtCs3YYFpeUFfny_8crc_fast5crc326fusion7aarch6423crc32_iso_hdlc_aes_sha3Csa96wfuC4ae_8checksum
FN:109,_RNvNtNtNtCs3YYFpeUFfny_8crc_fast5crc326fusion7aarch648clmul_hiCsa96wfuC4ae_8checksum
FN:101,_RNvNtNtNtCs3YYFpeUFfny_8crc_fast5crc326fusion7aarch648clmul_loCsa96wfuC4ae_8checksum
FN:117,_RNvNtNtNtCs3YYFpeUFfny_8crc_fast5crc326fusion7aarch6412clmul_scalarCseaXugnuoQ7h_8checksum
FN:73,_RNvNtNtNtCs3YYFpeUFfny_8crc_fast5crc326fusion7aarch6415crc32_iscsi_aesCseaXugnuoQ7h_8checksum
FN:131,_RNvNtNtNtCs3YYFpeUFfny_8crc_fast5crc326fusion7aarch6416clmul_hi_and_xorCseaXugnuoQ7h_8checksum
FN:125,_RNvNtNtNtCs3YYFpeUFfny_8crc_fast5crc326fusion7aarch6416clmul_lo_and_xorCseaXugnuoQ7h_8checksum
FN:95,_RNvNtNtNtCs3YYFpeUFfny_8crc_fast5crc326fusion7aarch6418crc32_iso_hdlc_aesCseaXugnuoQ7h_8checksum
FN:58,_RNvNtNtNtCs3YYFpeUFfny_8crc_fast5crc326fusion7aarch6420crc32_iscsi_aes_sha3CseaXugnuoQ7h_8checksum
FN:80,_RNvNtNtNtCs3YYFpeUFfny_8crc_fast5crc326fusion7aarch6423crc32_iso_hdlc_aes_sha3CseaXugnuoQ7h_8checksum
FN:109,_RNvNtNtNtCs3YYFpeUFfny_8crc_fast5crc326fusion7aarch648clmul_hiCseaXugnuoQ7h_8checksum
FN:101,_RNvNtNtNtCs3YYFpeUFfny_8crc_fast5crc326fusion7aarch648clmul_loCseaXugnuoQ7h_8checksum
FN:28,_RNvNtNtNtCscwG700SpbJM_8crc_fast5crc326fusion7aarch6411crc32_iscsi
FN:42,_RNvNtNtNtCscwG700SpbJM_8crc_fast5crc326fusion7aarch6414crc32_iso_hdlc
FN:117,_RNvNtNtNtCscwG700SpbJM_8crc_fast5crc326fusion7aarch6412clmul_scalarB7_
FN:73,_RNvNtNtNtCscwG700SpbJM_8crc_fast5crc326fusion7aarch6415crc32_iscsi_aesB7_
FN:131,_RNvNtNtNtCscwG700SpbJM_8crc_fast5crc326fusion7aarch6416clmul_hi_and_xorB7_
FN:125,_RNvNtNtNtCscwG700SpbJM_8crc_fast5crc326fusion7aarch6416clmul_lo_and_xorB7_
FN:95,_RNvNtNtNtCscwG700SpbJM_8crc_fast5crc326fusion7aarch6418crc32_iso_hdlc_aesB7_
FN:58,_RNvNtNtNtCscwG700SpbJM_8crc_fast5crc326fusion7aarch6420crc32_iscsi_aes_sha3B7_
FN:80,_RNvNtNtNtCscwG700SpbJM_8crc_fast5crc326fusion7aarch6423crc32_iso_hdlc_aes_sha3B7_
FN:109,_RNvNtNtNtCscwG700SpbJM_8crc_fast5crc326fusion7aarch648clmul_hiB7_
FN:101,_RNvNtNtNtCscwG700SpbJM_8crc_fast5crc326fusion7aarch648clmul_loB7_
FN:249,_RNvNtNtNtNtCscwG700SpbJM_8crc_fast5crc326fusion7aarch645tests18crc32_iscsi_random
FN:210,_RNvNtNtNtNtCscwG700SpbJM_8crc_fast5crc326fusion7aarch645tests21crc32_iso_hdlc_random
FN:179,_RNvNtNtNtNtCscwG700SpbJM_8crc_fast5crc326fusion7aarch645testss_22test_crc32_iscsi_check
FN:148,_RNvNtNtNtNtCscwG700SpbJM_8crc_fast5crc326fusion7aarch645testss_25test_crc32_iso_hdlc_check
FN:202,_RNvNtNtNtNtCscwG700SpbJM_8crc_fast5crc326fusion7aarch645testss_30test_crc32_iscsi_large_lengths
FN:194,_RNvNtNtNtNtCscwG700SpbJM_8crc_fast5crc326fusion7aarch645testss_31test_crc32_iscsi_medium_lengths
FN:171,_RNvNtNtNtNtCscwG700SpbJM_8crc_fast5crc326fusion7aarch645testss_33test_crc32_iso_hdlc_large_lengths
FN:187,_RNvNtNtNtNtCscwG700SpbJM_8crc_fast5crc326fusion7aarch645testss_34test_crc32_iscsi_small_all_lengths
FN:163,_RNvNtNtNtNtCscwG700SpbJM_8crc_fast5crc326fusion7aarch645testss_34test_crc32_iso_hdlc_medium_lengths
FN:156,_RNvNtNtNtNtCscwG700SpbJM_8crc_fast5crc326fusion7aarch645testss_37test_crc32_iso_hdlc_small_all_lengths
FN:117,_RNvNtNtNtCs3YYFpeUFfny_8crc_fast5crc326fusion7aarch6412clmul_scalarCs4dsW9QDrSvF_12no_std_tests
FN:73,_RNvNtNtNtCs3YYFpeUFfny_8crc_fast5crc326fusion7aarch6415crc32_iscsi_aesCs4dsW9QDrSvF_12no_std_tests
FN:131,_RNvNtNtNtCs3YYFpeUFfny_8crc_fast5crc326fusion7aarch6416clmul_hi_and_xorCs4dsW9QDrSvF_12no_std_tests
FN:125,_RNvNtNtNtCs3YYFpeUFfny_8crc_fast5crc326fusion7aarch6416clmul_lo_and_xorCs4dsW9QDrSvF_12no_std_tests
FN:95,_RNvNtNtNtCs3YYFpeUFfny_8crc_fast5crc326fusion7aarch6418crc32_iso_hdlc_aesCs4dsW9QDrSvF_12no_std_tests
FN:58,_RNvNtNtNtCs3YYFpeUFfny_8crc_fast5crc326fusion7aarch6420crc32_iscsi_aes_sha3Cs4dsW9QDrSvF_12no_std_tests
FN:80,_RNvNtNtNtCs3YYFpeUFfny_8crc_fast5crc326fusion7aarch6423crc32_iso_hdlc_aes_sha3Cs4dsW9QDrSvF_12no_std_tests
FN:109,_RNvNtNtNtCs3YYFpeUFfny_8crc_fast5crc326fusion7aarch648clmul_hiCs4dsW9QDrSvF_12no_std_tests
FN:101,_RNvNtNtNtCs3YYFpeUFfny_8crc_fast5crc326fusion7aarch648clmul_loCs4dsW9QDrSvF_12no_std_tests
FN:117,_RNvNtNtNtCs3YYFpeUFfny_8crc_fast5crc326fusion7aarch6412clmul_scalarCsiyVaUKbNjcY_10wasm_tests
FN:73,_RNvNtNtNtCs3YYFpeUFfny_8crc_fast5crc326fusion7aarch6415crc32_iscsi_aesCsiyVaUKbNjcY_10wasm_tests
FN:131,_RNvNtNtNtCs3YYFpeUFfny_8crc_fast5crc326fusion7aarch6416clmul_hi_and_xorCsiyVaUKbNjcY_10wasm_tests
FN:125,_RNvNtNtNtCs3YYFpeUFfny_8crc_fast5crc326fusion7aarch6416clmul_lo_and_xorCsiyVaUKbNjcY_10wasm_tests
FN:95,_RNvNtNtNtCs3YYFpeUFfny_8crc_fast5crc326fusion7aarch6418crc32_iso_hdlc_aesCsiyVaUKbNjcY_10wasm_tests
FN:58,_RNvNtNtNtCs3YYFpeUFfny_8crc_fast5crc326fusion7aarch6420crc32_iscsi_aes_sha3CsiyVaUKbNjcY_10wasm_tests
FN:80,_RNvNtNtNtCs3YYFpeUFfny_8crc_fast5crc326fusion7aarch6423crc32_iso_hdlc_aes_sha3CsiyVaUKbNjcY_10wasm_tests
FN:109,_RNvNtNtNtCs3YYFpeUFfny_8crc_fast5crc326fusion7aarch648clmul_hiCsiyVaUKbNjcY_10wasm_tests
FN:101,_RNvNtNtNtCs3YYFpeUFfny_8crc_fast5crc326fusion7aarch648clmul_loCsiyVaUKbNjcY_10wasm_tests
FNDA:0,_RNvNtNtNtCs3YYFpeUFfny_8crc_fast5crc326fusion7aarch6412clmul_scalarB7_
FNDA:0,_RNvNtNtNtCs3YYFpeUFfny_8crc_fast5crc326fusion7aarch6415crc32_iscsi_aesB7_
FNDA:0,_RNvNtNtNtCs3YYFpeUFfny_8crc_fast5crc326fusion7aarch6416clmul_hi_and_xorB7_
FNDA:0,_RNvNtNtNtCs3YYFpeUFfny_8crc_fast5crc326fusion7aarch6416clmul_lo_and_xorB7_
FNDA:0,_RNvNtNtNtCs3YYFpeUFfny_8crc_fast5crc326fusion7aarch6418crc32_iso_hdlc_aesB7_
FNDA:0,_RNvNtNtNtCs3YYFpeUFfny_8crc_fast5crc326fusion7aarch6420crc32_iscsi_aes_sha3B7_
FNDA:0,_RNvNtNtNtCs3YYFpeUFfny_8crc_fast5crc326fusion7aarch6423crc32_iso_hdlc_aes_sha3B7_
FNDA:0,_RNvNtNtNtCs3YYFpeUFfny_8crc_fast5crc326fusion7aarch648clmul_hiB7_
FNDA:0,_RNvNtNtNtCs3YYFpeUFfny_8crc_fast5crc326fusion7aarch648clmul_loB7_
FNDA:879239,_RNvNtNtNtCs3YYFpeUFfny_8crc_fast5crc326fusion7aarch6411crc32_iscsi
FNDA:37,_RNvNtNtNtCs3YYFpeUFfny_8crc_fast5crc326fusion7aarch6414crc32_iso_hdlc
FNDA:0,_RNvNtNtNtCs3YYFpeUFfny_8crc_fast5crc326fusion7aarch6412clmul_scalarCsa96wfuC4ae_8checksum
FNDA:0,_RNvNtNtNtCs3YYFpeUFfny_8crc_fast5crc326fusion7aarch6415crc32_iscsi_aesCsa96wfuC4ae_8checksum
FNDA:0,_RNvNtNtNtCs3YYFpeUFfny_8crc_fast5crc326fusion7aarch6416clmul_hi_and_xorCsa96wfuC4ae_8checksum
FNDA:0,_RNvNtNtNtCs3YYFpeUFfny_8crc_fast5crc326fusion7aarch6416clmul_lo_and_xorCsa96wfuC4ae_8checksum
FNDA:0,_RNvNtNtNtCs3YYFpeUFfny_8crc_fast5crc326fusion7aarch6418crc32_iso_hdlc_aesCsa96wfuC4ae_8checksum
FNDA:0,_RNvNtNtNtCs3YYFpeUFfny_8crc_fast5crc326fusion7aarch6420crc32_iscsi_aes_sha3Csa96wfuC4ae_8checksum
FNDA:0,_RNvNtNtNtCs3YYFpeUFfny_8crc_fast5crc326fusion7aarch6423crc32_iso_hdlc_aes_sha3Csa96wfuC4ae_8checksum
FNDA:0,_RNvNtNtNtCs3YYFpeUFfny_8crc_fast5crc326fusion7aarch648clmul_hiCsa96wfuC4ae_8checksum
FNDA:0,_RNvNtNtNtCs3YYFpeUFfny_8crc_fast5crc326fusion7aarch648clmul_loCsa96wfuC4ae_8checksum
FNDA:0,_RNvNtNtNtCs3YYFpeUFfny_8crc_fast5crc326fusion7aarch6412clmul_scalarCseaXugnuoQ7h_8checksum
FNDA:0,_RNvNtNtNtCs3YYFpeUFfny_8crc_fast5crc326fusion7aarch6415crc32_iscsi_aesCseaXugnuoQ7h_8checksum
FNDA:0,_RNvNtNtNtCs3YYFpeUFfny_8crc_fast5crc326fusion7aarch6416clmul_hi_and_xorCseaXugnuoQ7h_8checksum
FNDA:0,_RNvNtNtNtCs3YYFpeUFfny_8crc_fast5crc326fusion7aarch6416clmul_lo_and_xorCseaXugnuoQ7h_8checksum
FNDA:0,_RNvNtNtNtCs3YYFpeUFfny_8crc_fast5crc326fusion7aarch6418crc32_iso_hdlc_aesCseaXugnuoQ7h_8checksum
FNDA:879235,_RNvNtNtNtCs3YYFpeUFfny_8crc_fast5crc326fusion7aarch6420crc32_iscsi_aes_sha3CseaXugnuoQ7h_8checksum
FNDA:0,_RNvNtNtNtCs3YYFpeUFfny_8crc_fast5crc326fusion7aarch6423crc32_iso_hdlc_aes_sha3CseaXugnuoQ7h_8checksum
FNDA:0,_RNvNtNtNtCs3YYFpeUFfny_8crc_fast5crc326fusion7aarch648clmul_hiCseaXugnuoQ7h_8checksum
FNDA:0,_RNvNtNtNtCs3YYFpeUFfny_8crc_fast5crc326fusion7aarch648clmul_loCseaXugnuoQ7h_8checksum
FNDA:2074,_RNvNtNtNtCscwG700SpbJM_8crc_fast5crc326fusion7aarch6411crc32_iscsi
FNDA:2074,_RNvNtNtNtCscwG700SpbJM_8crc_fast5crc326fusion7aarch6414crc32_iso_hdlc
FNDA:8400,_RNvNtNtNtCscwG700SpbJM_8crc_fast5crc326fusion7aarch6412clmul_scalarB7_
FNDA:0,_RNvNtNtNtCscwG700SpbJM_8crc_fast5crc326fusion7aarch6415crc32_iscsi_aesB7_
FNDA:445730,_RNvNtNtNtCscwG700SpbJM_8crc_fast5crc326fusion7aarch6416clmul_hi_and_xorB7_
FNDA:445730,_RNvNtNtNtCscwG700SpbJM_8crc_fast5crc326fusion7aarch6416clmul_lo_and_xorB7_
FNDA:0,_RNvNtNtNtCscwG700SpbJM_8crc_fast5crc326fusion7aarch6418crc32_iso_hdlc_aesB7_
FNDA:2074,_RNvNtNtNtCscwG700SpbJM_8crc_fast5crc326fusion7aarch6420crc32_iscsi_aes_sha3B7_
FNDA:2074,_RNvNtNtNtCscwG700SpbJM_8crc_fast5crc326fusion7aarch6423crc32_iso_hdlc_aes_sha3B7_
FNDA:1080386,_RNvNtNtNtCscwG700SpbJM_8crc_fast5crc326fusion7aarch648clmul_hiB7_
FNDA:1080386,_RNvNtNtNtCscwG700SpbJM_8crc_fast5crc326fusion7aarch648clmul_loB7_
FNDA:1026,_RNvNtNtNtNtCscwG700SpbJM_8crc_fast5crc326fusion7aarch645tests18crc32_iscsi_random
FNDA:1026,_RNvNtNtNtNtCscwG700SpbJM_8crc_fast5crc326fusion7aarch645tests21crc32_iso_hdlc_random
FNDA:1,_RNvNtNtNtNtCscwG700SpbJM_8crc_fast5crc326fusion7aarch645testss_22test_crc32_iscsi_check
FNDA:1,_RNvNtNtNtNtCscwG700SpbJM_8crc_fast5crc326fusion7aarch645testss_25test_crc32_iso_hdlc_check
FNDA:1,_RNvNtNtNtNtCscwG700SpbJM_8crc_fast5crc326fusion7aarch645testss_30test_crc32_iscsi_large_lengths
FNDA:1,_RNvNtNtNtNtCscwG700SpbJM_8crc_fast5crc326fusion7aarch645testss_31test_crc32_iscsi_medium_lengths
FNDA:1,_RNvNtNtNtNtCscwG700SpbJM_8crc_fast5crc326fusion7aarch645testss_33test_crc32_iso_hdlc_large_lengths
FNDA:1,_RNvNtNtNtNtCscwG700SpbJM_8crc_fast5crc326fusion7aarch645testss_34test_crc32_iscsi_small_all_lengths
FNDA:1,_RNvNtNtNtNtCscwG700SpbJM_8crc_fast5crc326fusion7aarch645testss_34test_crc32_iso_hdlc_medium_lengths
FNDA:1,_RNvNtNtNtNtCscwG700SpbJM_8crc_fast5crc326fusion7aarch645testss_37test_crc32_iso_hdlc_small_all_lengths
FNDA:0,_RNvNtNtNtCs3YYFpeUFfny_8crc_fast5crc326fusion7aarch6412clmul_scalarCs4dsW9QDrSvF_12no_std_tests
FNDA:0,_RNvNtNtNtCs3YYFpeUFfny_8crc_fast5crc326fusion7aarch6415crc32_iscsi_aesCs4dsW9QDrSvF_12no_std_tests
FNDA:85,_RNvNtNtNtCs3YYFpeUFfny_8crc_fast5crc326fusion7aarch6416clmul_hi_and_xorCs4dsW9QDrSvF_12no_std_tests
FNDA:85,_RNvNtNtNtCs3YYFpeUFfny_8crc_fast5crc326fusion7aarch6416clmul_lo_and_xorCs4dsW9QDrSvF_12no_std_tests
FNDA:0,_RNvNtNtNtCs3YYFpeUFfny_8crc_fast5crc326fusion7aarch6418crc32_iso_hdlc_aesCs4dsW9QDrSvF_12no_std_tests
FNDA:2,_RNvNtNtNtCs3YYFpeUFfny_8crc_fast5crc326fusion7aarch6420crc32_iscsi_aes_sha3Cs4dsW9QDrSvF_12no_std_tests
FNDA:19,_RNvNtNtNtCs3YYFpeUFfny_8crc_fast5crc326fusion7aarch6423crc32_iso_hdlc_aes_sha3Cs4dsW9QDrSvF_12no_std_tests
FNDA:85,_RNvNtNtNtCs3YYFpeUFfny_8crc_fast5crc326fusion7aarch648clmul_hiCs4dsW9QDrSvF_12no_std_tests
FNDA:85,_RNvNtNtNtCs3YYFpeUFfny_8crc_fast5crc326fusion7aarch648clmul_loCs4dsW9QDrSvF_12no_std_tests
FNDA:0,_RNvNtNtNtCs3YYFpeUFfny_8crc_fast5crc326fusion7aarch6412clmul_scalarCsiyVaUKbNjcY_10wasm_tests
FNDA:0,_RNvNtNtNtCs3YYFpeUFfny_8crc_fast5crc326fusion7aarch6415crc32_iscsi_aesCsiyVaUKbNjcY_10wasm_tests
FNDA:63,_RNvNtNtNtCs3YYFpeUFfny_8crc_fast5crc326fusion7aarch6416clmul_hi_and_xorCsiyVaUKbNjcY_10wasm_tests
FNDA:63,_RNvNtNtNtCs3YYFpeUFfny_8crc_fast5crc326fusion7aarch6416clmul_lo_and_xorCsiyVaUKbNjcY_10wasm_tests
FNDA:0,_RNvNtNtNtCs3YYFpeUFfny_8crc_fast5crc326fusion7aarch6418crc32_iso_hdlc_aesCsiyVaUKbNjcY_10wasm_tests
FNDA:2,_RNvNtNtNtCs3YYFpeUFfny_8crc_fast5crc326fusion7aarch6420crc32_iscsi_aes_sha3CsiyVaUKbNjcY_10wasm_tests
FNDA:18,_RNvNtNtNtCs3YYFpeUFfny_8crc_fast5crc326fusion7aarch6423crc32_iso_hdlc_aes_sha3CsiyVaUKbNjcY_10wasm_tests
FNDA:63,_RNvNtNtNtCs3YYFpeUFfny_8crc_fast5crc326fusion7aarch648clmul_hiCsiyVaUKbNjcY_10wasm_tests
FNDA:63,_RNvNtNtNtCs3YYFpeUFfny_8crc_fast5crc326fusion7aarch648clmul_loCsiyVaUKbNjcY_10wasm_tests
FNF:21
FNH:19
DA:28,881313
DA:30,881313
DA:34,881313
DA:35,881313
DA:37,0
DA:39,881313
DA:42,2111
DA:44,2111
DA:48,2111
DA:49,2111
DA:51,0
DA:53,2111
DA:58,881313
DA:63,881313
DA:64,881308
DA:66,5
DA:69,881313
DA:73,0
DA:74,0
DA:75,0
DA:80,2111
DA:85,2111
DA:86,2106
DA:88,5
DA:91,2111
DA:95,0
DA:96,0
DA:97,0
DA:101,1080534
DA:103,1080534
DA:104,1080534
DA:105,1080534
DA:109,1080534
DA:111,1080534
DA:112,1080534
DA:113,1080534
DA:117,8400
DA:119,8400
DA:120,8400
DA:121,8400
DA:125,445878
DA:126,445878
DA:127,445878
DA:131,445878
DA:132,445878
DA:133,445878
DA:148,1
DA:149,1
DA:150,1
DA:153,1
DA:156,1
DA:157,256
DA:158,255
DA:160,1
DA:163,1
DA:165,770
DA:166,769
DA:168,1
DA:171,1
DA:173,3
DA:174,2
DA:176,1
DA:179,1
DA:180,1
DA:181,1
DA:184,1
DA:187,1
DA:188,256
DA:189,255
DA:190,255
DA:191,1
DA:194,1
DA:196,770
DA:197,769
DA:198,769
DA:199,1
DA:202,1
DA:204,3
DA:205,2
DA:206,2
DA:207,1
DA:210,1026
DA:211,1026
DA:212,1026
DA:214,1026
DA:216,1026
DA:219,1026
DA:220,1026
DA:224,1026
DA:225,1026
DA:229,1026
DA:249,1026
DA:250,1026
DA:251,1026
DA:253,1026
DA:255,1026
DA:258,1026
DA:259,1026
DA:263,1026
DA:264,1026
DA:268,1026
BRF:0
BRH:0
LF:101
LH:93
end_of_record
SF:/Users/mr.wolf/loadingalias/crc-fast-rust/src/crc32/fusion/mod.rs
FN:23,_RNvNtNtCs3YYFpeUFfny_8crc_fast5crc326fusion11crc32_iscsi
FN:17,_RNvNtNtCs3YYFpeUFfny_8crc_fast5crc326fusion14crc32_iso_hdlc
FN:23,_RNvNtNtCscwG700SpbJM_8crc_fast5crc326fusion11crc32_iscsi
FN:17,_RNvNtNtCscwG700SpbJM_8crc_fast5crc326fusion14crc32_iso_hdlc
FNDA:879239,_RNvNtNtCs3YYFpeUFfny_8crc_fast5crc326fusion11crc32_iscsi
FNDA:37,_RNvNtNtCs3YYFpeUFfny_8crc_fast5crc326fusion14crc32_iso_hdlc
FNDA:1047,_RNvNtNtCscwG700SpbJM_8crc_fast5crc326fusion11crc32_iscsi
FNDA:1047,_RNvNtNtCscwG700SpbJM_8crc_fast5crc326fusion14crc32_iso_hdlc
FNF:2
FNH:2
DA:17,1084
DA:18,1084
DA:19,1084
DA:23,880286
DA:26,880286
DA:33,880286
BRF:0
BRH:0
LF:6
LH:6
end_of_record
SF:/Users/mr.wolf/loadingalias/crc-fast-rust/src/crc64/algorithm.rs
FN:26,_RINvXNtNtCs3YYFpeUFfny_8crc_fast5crc649algorithmNtNtB7_7structs7Width64NtNtB7_6traits16EnhancedCrcWidth12create_stateNtNtNtNtB7_4arch7aarch643aes13Aarch64AesOpsEB7_
FN:26,_RINvXNtNtCs3YYFpeUFfny_8crc_fast5crc649algorithmNtNtB7_7structs7Width64NtNtB7_6traits16EnhancedCrcWidth12create_stateNtNtNtNtB7_4arch7aarch648aes_sha317Aarch64AesSha3OpsEB7_
FN:16,_RNvXNtNtCs3YYFpeUFfny_8crc_fast5crc649algorithmNtNtB6_7structs7Width64NtNtB6_6traits16EnhancedCrcWidth14load_constants
FN:212,_RINvNtNtCs3YYFpeUFfny_8crc_fast5crc649algorithm15process_0_to_15NtNtNtNtB6_4arch7aarch643aes13Aarch64AesOpsNtNtB6_7structs7Width64EB6_
FN:212,_RINvNtNtCs3YYFpeUFfny_8crc_fast5crc649algorithm15process_0_to_15NtNtNtNtB6_4arch7aarch648aes_sha317Aarch64AesSha3OpsNtNtB6_7structs7Width64EB6_
FN:79,_RINvXNtNtCs3YYFpeUFfny_8crc_fast5crc649algorithmNtNtB7_7structs7Width64NtNtB7_6traits16EnhancedCrcWidth10fold_widthNtNtNtNtB7_4arch7aarch643aes13Aarch64AesOpsEB7_
FN:79,_RINvXNtNtCs3YYFpeUFfny_8crc_fast5crc649algorithmNtNtB7_7structs7Width64NtNtB7_6traits16EnhancedCrcWidth10fold_widthNtNtNtNtB7_4arch7aarch648aes_sha317Aarch64AesSha3OpsEB7_
FN:100,_RINvXNtNtCs3YYFpeUFfny_8crc_fast5crc649algorithmNtNtB7_7structs7Width64NtNtB7_6traits16EnhancedCrcWidth17barrett_reductionNtNtNtNtB7_4arch7aarch643aes13Aarch64AesOpsEB7_
FN:100,_RINvXNtNtCs3YYFpeUFfny_8crc_fast5crc649algorithmNtNtB7_7structs7Width64NtNtB7_6traits16EnhancedCrcWidth17barrett_reductionNtNtNtNtB7_4arch7aarch648aes_sha317Aarch64AesSha3OpsEB7_
FN:133,_RINvXNtNtCs3YYFpeUFfny_8crc_fast5crc649algorithmNtNtB7_7structs7Width64NtNtB7_6traits16EnhancedCrcWidth18create_coefficientNtNtNtNtB7_4arch7aarch643aes13Aarch64AesOpsEB7_
FN:133,_RINvXNtNtCs3YYFpeUFfny_8crc_fast5crc649algorithmNtNtB7_7structs7Width64NtNtB7_6traits16EnhancedCrcWidth18create_coefficientNtNtNtNtB7_4arch7aarch648aes_sha317Aarch64AesSha3OpsEB7_
FN:146,_RINvXNtNtCs3YYFpeUFfny_8crc_fast5crc649algorithmNtNtB7_7structs7Width64NtNtB7_6traits16EnhancedCrcWidth23perform_final_reductionNtNtNtNtB7_4arch7aarch643aes13Aarch64AesOpsEB7_
FN:146,_RINvXNtNtCs3YYFpeUFfny_8crc_fast5crc649algorithmNtNtB7_7structs7Width64NtNtB7_6traits16EnhancedCrcWidth23perform_final_reductionNtNtNtNtB7_4arch7aarch648aes_sha317Aarch64AesSha3OpsEB7_
FN:168,_RNvXNtNtCs3YYFpeUFfny_8crc_fast5crc649algorithmNtNtB6_7structs7Width64NtNtB6_6traits16EnhancedCrcWidth24get_last_bytes_table_ptr
FN:47,_RINvXNtNtCs3YYFpeUFfny_8crc_fast5crc649algorithmNtNtB7_7structs7Width64NtNtB7_6traits16EnhancedCrcWidth14extract_resultNtNtNtNtB7_4arch7aarch643aes13Aarch64AesOpsEB7_
FN:47,_RINvXNtNtCs3YYFpeUFfny_8crc_fast5crc649algorithmNtNtB7_7structs7Width64NtNtB7_6traits16EnhancedCrcWidth14extract_resultNtNtNtNtB7_4arch7aarch648aes_sha317Aarch64AesSha3OpsEB7_
FN:60,_RINvXNtNtCs3YYFpeUFfny_8crc_fast5crc649algorithmNtNtB7_7structs7Width64NtNtB7_6traits16EnhancedCrcWidth7fold_16NtNtNtNtB7_4arch7aarch643aes13Aarch64AesOpsEB7_
FN:60,_RINvXNtNtCs3YYFpeUFfny_8crc_fast5crc649algorithmNtNtB7_7structs7Width64NtNtB7_6traits16EnhancedCrcWidth7fold_16NtNtNtNtB7_4arch7aarch648aes_sha317Aarch64AesSha3OpsEB7_
FN:26,_RINvXNtNtCs3YYFpeUFfny_8crc_fast5crc649algorithmNtNtB7_7structs7Width64NtNtB7_6traits16EnhancedCrcWidth12create_stateNtNtNtNtB7_4arch7aarch643aes13Aarch64AesOpsECsa96wfuC4ae_8checksum
FN:26,_RINvXNtNtCs3YYFpeUFfny_8crc_fast5crc649algorithmNtNtB7_7structs7Width64NtNtB7_6traits16EnhancedCrcWidth12create_stateNtNtNtNtB7_4arch7aarch648aes_sha317Aarch64AesSha3OpsECsa96wfuC4ae_8checksum
FN:26,_RINvXNtNtCs3YYFpeUFfny_8crc_fast5crc649algorithmNtNtB7_7structs7Width64NtNtB7_6traits16EnhancedCrcWidth12create_stateNtNtNtNtB7_4arch7aarch643aes13Aarch64AesOpsECseaXugnuoQ7h_8checksum
FN:26,_RINvXNtNtCs3YYFpeUFfny_8crc_fast5crc649algorithmNtNtB7_7structs7Width64NtNtB7_6traits16EnhancedCrcWidth12create_stateNtNtNtNtB7_4arch7aarch648aes_sha317Aarch64AesSha3OpsECseaXugnuoQ7h_8checksum
FN:79,_RINvXNtNtCscwG700SpbJM_8crc_fast5crc649algorithmNtNtB7_7structs7Width64NtNtB7_6traits16EnhancedCrcWidth10fold_widthNtNtNtNtB7_4arch7aarch643aes13Aarch64AesOpsEB7_
FN:79,_RINvXNtNtCscwG700SpbJM_8crc_fast5crc649algorithmNtNtB7_7structs7Width64NtNtB7_6traits16EnhancedCrcWidth10fold_widthNtNtNtNtB7_4arch7aarch648aes_sha317Aarch64AesSha3OpsEB7_
FN:26,_RINvXNtNtCscwG700SpbJM_8crc_fast5crc649algorithmNtNtB7_7structs7Width64NtNtB7_6traits16EnhancedCrcWidth12create_stateNtNtNtNtB7_4arch7aarch643aes13Aarch64AesOpsEB7_
FN:26,_RINvXNtNtCscwG700SpbJM_8crc_fast5crc649algorithmNtNtB7_7structs7Width64NtNtB7_6traits16EnhancedCrcWidth12create_stateNtNtNtNtB7_4arch7aarch648aes_sha317Aarch64AesSha3OpsEB7_
FN:47,_RINvXNtNtCscwG700SpbJM_8crc_fast5crc649algorithmNtNtB7_7structs7Width64NtNtB7_6traits16EnhancedCrcWidth14extract_resultNtNtNtNtB7_4arch7aarch643aes13Aarch64AesOpsEB7_
FN:47,_RINvXNtNtCscwG700SpbJM_8crc_fast5crc649algorithmNtNtB7_7structs7Width64NtNtB7_6traits16EnhancedCrcWidth14extract_resultNtNtNtNtB7_4arch7aarch648aes_sha317Aarch64AesSha3OpsEB7_
FN:100,_RINvXNtNtCscwG700SpbJM_8crc_fast5crc649algorithmNtNtB7_7structs7Width64NtNtB7_6traits16EnhancedCrcWidth17barrett_reductionNtNtNtNtB7_4arch7aarch643aes13Aarch64AesOpsEB7_
FN:100,_RINvXNtNtCscwG700SpbJM_8crc_fast5crc649algorithmNtNtB7_7structs7Width64NtNtB7_6traits16EnhancedCrcWidth17barrett_reductionNtNtNtNtB7_4arch7aarch648aes_sha317Aarch64AesSha3OpsEB7_
FN:133,_RINvXNtNtCscwG700SpbJM_8crc_fast5crc649algorithmNtNtB7_7structs7Width64NtNtB7_6traits16EnhancedCrcWidth18create_coefficientNtNtNtNtB7_4arch7aarch643aes13Aarch64AesOpsEB7_
FN:133,_RINvXNtNtCscwG700SpbJM_8crc_fast5crc649algorithmNtNtB7_7structs7Width64NtNtB7_6traits16EnhancedCrcWidth18create_coefficientNtNtNtNtB7_4arch7aarch648aes_sha317Aarch64AesSha3OpsEB7_
FN:146,_RINvXNtNtCscwG700SpbJM_8crc_fast5crc649algorithmNtNtB7_7structs7Width64NtNtB7_6traits16EnhancedCrcWidth23perform_final_reductionNtNtNtNtB7_4arch7aarch643aes13Aarch64AesOpsEB7_
FN:146,_RINvXNtNtCscwG700SpbJM_8crc_fast5crc649algorithmNtNtB7_7structs7Width64NtNtB7_6traits16EnhancedCrcWidth23perform_final_reductionNtNtNtNtB7_4arch7aarch648aes_sha317Aarch64AesSha3OpsEB7_
FN:60,_RINvXNtNtCscwG700SpbJM_8crc_fast5crc649algorithmNtNtB7_7structs7Width64NtNtB7_6traits16EnhancedCrcWidth7fold_16NtNtNtNtB7_4arch7aarch643aes13Aarch64AesOpsEB7_
FN:60,_RINvXNtNtCscwG700SpbJM_8crc_fast5crc649algorithmNtNtB7_7structs7Width64NtNtB7_6traits16EnhancedCrcWidth7fold_16NtNtNtNtB7_4arch7aarch648aes_sha317Aarch64AesSha3OpsEB7_
FN:168,_RNvXNtNtCscwG700SpbJM_8crc_fast5crc649algorithmNtNtB6_7structs7Width64NtNtB6_6traits16EnhancedCrcWidth24get_last_bytes_table_ptr
FN:16,_RNvXNtNtCscwG700SpbJM_8crc_fast5crc649algorithmNtNtB6_7structs7Width64NtNtB6_6traits16EnhancedCrcWidth14load_constants
FN:212,_RINvNtNtCscwG700SpbJM_8crc_fast5crc649algorithm15process_0_to_15NtNtNtNtB6_4arch7aarch643aes13Aarch64AesOpsNtNtB6_7structs7Width64EB6_
FN:212,_RINvNtNtCscwG700SpbJM_8crc_fast5crc649algorithm15process_0_to_15NtNtNtNtB6_4arch7aarch648aes_sha317Aarch64AesSha3OpsNtNtB6_7structs7Width64EB6_
FN:26,_RINvXNtNtCs3YYFpeUFfny_8crc_fast5crc649algorithmNtNtB7_7structs7Width64NtNtB7_6traits16EnhancedCrcWidth12create_stateNtNtNtNtB7_4arch7aarch643aes13Aarch64AesOpsECs4dsW9QDrSvF_12no_std_tests
FN:26,_RINvXNtNtCs3YYFpeUFfny_8crc_fast5crc649algorithmNtNtB7_7structs7Width64NtNtB7_6traits16EnhancedCrcWidth12create_stateNtNtNtNtB7_4arch7aarch648aes_sha317Aarch64AesSha3OpsECs4dsW9QDrSvF_12no_std_tests
FN:26,_RINvXNtNtCs3YYFpeUFfny_8crc_fast5crc649algorithmNtNtB7_7structs7Width64NtNtB7_6traits16EnhancedCrcWidth12create_stateNtNtNtNtB7_4arch7aarch643aes13Aarch64AesOpsECsiyVaUKbNjcY_10wasm_tests
FN:26,_RINvXNtNtCs3YYFpeUFfny_8crc_fast5crc649algorithmNtNtB7_7structs7Width64NtNtB7_6traits16EnhancedCrcWidth12create_stateNtNtNtNtB7_4arch7aarch648aes_sha317Aarch64AesSha3OpsECsiyVaUKbNjcY_10wasm_tests
FNDA:0,_RINvXNtNtCs3YYFpeUFfny_8crc_fast5crc649algorithmNtNtB7_7structs7Width64NtNtB7_6traits16EnhancedCrcWidth12create_stateNtNtNtNtB7_4arch7aarch643aes13Aarch64AesOpsEB7_
FNDA:1,_RINvXNtNtCs3YYFpeUFfny_8crc_fast5crc649algorithmNtNtB7_7structs7Width64NtNtB7_6traits16EnhancedCrcWidth12create_stateNtNtNtNtB7_4arch7aarch648aes_sha317Aarch64AesSha3OpsEB7_
FNDA:3,_RNvXNtNtCs3YYFpeUFfny_8crc_fast5crc649algorithmNtNtB6_7structs7Width64NtNtB6_6traits16EnhancedCrcWidth14load_constants
FNDA:0,_RINvNtNtCs3YYFpeUFfny_8crc_fast5crc649algorithm15process_0_to_15NtNtNtNtB6_4arch7aarch643aes13Aarch64AesOpsNtNtB6_7structs7Width64EB6_
FNDA:22,_RINvNtNtCs3YYFpeUFfny_8crc_fast5crc649algorithm15process_0_to_15NtNtNtNtB6_4arch7aarch648aes_sha317Aarch64AesSha3OpsNtNtB6_7structs7Width64EB6_
FNDA:0,_RINvXNtNtCs3YYFpeUFfny_8crc_fast5crc649algorithmNtNtB7_7structs7Width64NtNtB7_6traits16EnhancedCrcWidth10fold_widthNtNtNtNtB7_4arch7aarch643aes13Aarch64AesOpsEB7_
FNDA:17,_RINvXNtNtCs3YYFpeUFfny_8crc_fast5crc649algorithmNtNtB7_7structs7Width64NtNtB7_6traits16EnhancedCrcWidth10fold_widthNtNtNtNtB7_4arch7aarch648aes_sha317Aarch64AesSha3OpsEB7_
FNDA:0,_RINvXNtNtCs3YYFpeUFfny_8crc_fast5crc649algorithmNtNtB7_7structs7Width64NtNtB7_6traits16EnhancedCrcWidth17barrett_reductionNtNtNtNtB7_4arch7aarch643aes13Aarch64AesOpsEB7_
FNDA:23,_RINvXNtNtCs3YYFpeUFfny_8crc_fast5crc649algorithmNtNtB7_7structs7Width64NtNtB7_6traits16EnhancedCrcWidth17barrett_reductionNtNtNtNtB7_4arch7aarch648aes_sha317Aarch64AesSha3OpsEB7_
FNDA:0,_RINvXNtNtCs3YYFpeUFfny_8crc_fast5crc649algorithmNtNtB7_7structs7Width64NtNtB7_6traits16EnhancedCrcWidth18create_coefficientNtNtNtNtB7_4arch7aarch643aes13Aarch64AesOpsEB7_
FNDA:48,_RINvXNtNtCs3YYFpeUFfny_8crc_fast5crc649algorithmNtNtB7_7structs7Width64NtNtB7_6traits16EnhancedCrcWidth18create_coefficientNtNtNtNtB7_4arch7aarch648aes_sha317Aarch64AesSha3OpsEB7_
FNDA:0,_RINvXNtNtCs3YYFpeUFfny_8crc_fast5crc649algorithmNtNtB7_7structs7Width64NtNtB7_6traits16EnhancedCrcWidth23perform_final_reductionNtNtNtNtB7_4arch7aarch643aes13Aarch64AesOpsEB7_
FNDA:17,_RINvXNtNtCs3YYFpeUFfny_8crc_fast5crc649algorithmNtNtB7_7structs7Width64NtNtB7_6traits16EnhancedCrcWidth23perform_final_reductionNtNtNtNtB7_4arch7aarch648aes_sha317Aarch64AesSha3OpsEB7_
FNDA:22,_RNvXNtNtCs3YYFpeUFfny_8crc_fast5crc649algorithmNtNtB6_7structs7Width64NtNtB6_6traits16EnhancedCrcWidth24get_last_bytes_table_ptr
FNDA:0,_RINvXNtNtCs3YYFpeUFfny_8crc_fast5crc649algorithmNtNtB7_7structs7Width64NtNtB7_6traits16EnhancedCrcWidth14extract_resultNtNtNtNtB7_4arch7aarch643aes13Aarch64AesOpsEB7_
FNDA:1,_RINvXNtNtCs3YYFpeUFfny_8crc_fast5crc649algorithmNtNtB7_7structs7Width64NtNtB7_6traits16EnhancedCrcWidth14extract_resultNtNtNtNtB7_4arch7aarch648aes_sha317Aarch64AesSha3OpsEB7_
FNDA:0,_RINvXNtNtCs3YYFpeUFfny_8crc_fast5crc649algorithmNtNtB7_7structs7Width64NtNtB7_6traits16EnhancedCrcWidth7fold_16NtNtNtNtB7_4arch7aarch643aes13Aarch64AesOpsEB7_
FNDA:511,_RINvXNtNtCs3YYFpeUFfny_8crc_fast5crc649algorithmNtNtB7_7structs7Width64NtNtB7_6traits16EnhancedCrcWidth7fold_16NtNtNtNtB7_4arch7aarch648aes_sha317Aarch64AesSha3OpsEB7_
FNDA:0,_RINvXNtNtCs3YYFpeUFfny_8crc_fast5crc649algorithmNtNtB7_7structs7Width64NtNtB7_6traits16EnhancedCrcWidth12create_stateNtNtNtNtB7_4arch7aarch643aes13Aarch64AesOpsECsa96wfuC4ae_8checksum
FNDA:0,_RINvXNtNtCs3YYFpeUFfny_8crc_fast5crc649algorithmNtNtB7_7structs7Width64NtNtB7_6traits16EnhancedCrcWidth12create_stateNtNtNtNtB7_4arch7aarch648aes_sha317Aarch64AesSha3OpsECsa96wfuC4ae_8checksum
FNDA:0,_RINvXNtNtCs3YYFpeUFfny_8crc_fast5crc649algorithmNtNtB7_7structs7Width64NtNtB7_6traits16EnhancedCrcWidth12create_stateNtNtNtNtB7_4arch7aarch643aes13Aarch64AesOpsECseaXugnuoQ7h_8checksum
FNDA:0,_RINvXNtNtCs3YYFpeUFfny_8crc_fast5crc649algorithmNtNtB7_7structs7Width64NtNtB7_6traits16EnhancedCrcWidth12create_stateNtNtNtNtB7_4arch7aarch648aes_sha317Aarch64AesSha3OpsECseaXugnuoQ7h_8checksum
FNDA:0,_RINvXNtNtCscwG700SpbJM_8crc_fast5crc649algorithmNtNtB7_7structs7Width64NtNtB7_6traits16EnhancedCrcWidth10fold_widthNtNtNtNtB7_4arch7aarch643aes13Aarch64AesOpsEB7_
FNDA:26162,_RINvXNtNtCscwG700SpbJM_8crc_fast5crc649algorithmNtNtB7_7structs7Width64NtNtB7_6traits16EnhancedCrcWidth10fold_widthNtNtNtNtB7_4arch7aarch648aes_sha317Aarch64AesSha3OpsEB7_
FNDA:0,_RINvXNtNtCscwG700SpbJM_8crc_fast5crc649algorithmNtNtB7_7structs7Width64NtNtB7_6traits16EnhancedCrcWidth12create_stateNtNtNtNtB7_4arch7aarch643aes13Aarch64AesOpsEB7_
FNDA:27172,_RINvXNtNtCscwG700SpbJM_8crc_fast5crc649algorithmNtNtB7_7structs7Width64NtNtB7_6traits16EnhancedCrcWidth12create_stateNtNtNtNtB7_4arch7aarch648aes_sha317Aarch64AesSha3OpsEB7_
FNDA:0,_RINvXNtNtCscwG700SpbJM_8crc_fast5crc649algorithmNtNtB7_7structs7Width64NtNtB7_6traits16EnhancedCrcWidth14extract_resultNtNtNtNtB7_4arch7aarch643aes13Aarch64AesOpsEB7_
FNDA:158,_RINvXNtNtCscwG700SpbJM_8crc_fast5crc649algorithmNtNtB7_7structs7Width64NtNtB7_6traits16EnhancedCrcWidth14extract_resultNtNtNtNtB7_4arch7aarch648aes_sha317Aarch64AesSha3OpsEB7_
FNDA:0,_RINvXNtNtCscwG700SpbJM_8crc_fast5crc649algorithmNtNtB7_7structs7Width64NtNtB7_6traits16EnhancedCrcWidth17barrett_reductionNtNtNtNtB7_4arch7aarch643aes13Aarch64AesOpsEB7_
FNDA:27014,_RINvXNtNtCscwG700SpbJM_8crc_fast5crc649algorithmNtNtB7_7structs7Width64NtNtB7_6traits16EnhancedCrcWidth17barrett_reductionNtNtNtNtB7_4arch7aarch648aes_sha317Aarch64AesSha3OpsEB7_
FNDA:0,_RINvXNtNtCscwG700SpbJM_8crc_fast5crc649algorithmNtNtB7_7structs7Width64NtNtB7_6traits16EnhancedCrcWidth18create_coefficientNtNtNtNtB7_4arch7aarch643aes13Aarch64AesOpsEB7_
FNDA:176759,_RINvXNtNtCscwG700SpbJM_8crc_fast5crc649algorithmNtNtB7_7structs7Width64NtNtB7_6traits16EnhancedCrcWidth18create_coefficientNtNtNtNtB7_4arch7aarch648aes_sha317Aarch64AesSha3OpsEB7_
FNDA:0,_RINvXNtNtCscwG700SpbJM_8crc_fast5crc649algorithmNtNtB7_7structs7Width64NtNtB7_6traits16EnhancedCrcWidth23perform_final_reductionNtNtNtNtB7_4arch7aarch643aes13Aarch64AesOpsEB7_
FNDA:26162,_RINvXNtNtCscwG700SpbJM_8crc_fast5crc649algorithmNtNtB7_7structs7Width64NtNtB7_6traits16EnhancedCrcWidth23perform_final_reductionNtNtNtNtB7_4arch7aarch648aes_sha317Aarch64AesSha3OpsEB7_
FNDA:0,_RINvXNtNtCscwG700SpbJM_8crc_fast5crc649algorithmNtNtB7_7structs7Width64NtNtB7_6traits16EnhancedCrcWidth7fold_16NtNtNtNtB7_4arch7aarch643aes13Aarch64AesOpsEB7_
FNDA:2742956,_RINvXNtNtCscwG700SpbJM_8crc_fast5crc649algorithmNtNtB7_7structs7Width64NtNtB7_6traits16EnhancedCrcWidth7fold_16NtNtNtNtB7_4arch7aarch648aes_sha317Aarch64AesSha3OpsEB7_
FNDA:13598,_RNvXNtNtCscwG700SpbJM_8crc_fast5crc649algorithmNtNtB6_7structs7Width64NtNtB6_6traits16EnhancedCrcWidth24get_last_bytes_table_ptr
FNDA:4152,_RNvXNtNtCscwG700SpbJM_8crc_fast5crc649algorithmNtNtB6_7structs7Width64NtNtB6_6traits16EnhancedCrcWidth14load_constants
FNDA:0,_RINvNtNtCscwG700SpbJM_8crc_fast5crc649algorithm15process_0_to_15NtNtNtNtB6_4arch7aarch643aes13Aarch64AesOpsNtNtB6_7structs7Width64EB6_
FNDA:1820,_RINvNtNtCscwG700SpbJM_8crc_fast5crc649algorithm15process_0_to_15NtNtNtNtB6_4arch7aarch648aes_sha317Aarch64AesSha3OpsNtNtB6_7structs7Width64EB6_
FNDA:0,_RINvXNtNtCs3YYFpeUFfny_8crc_fast5crc649algorithmNtNtB7_7structs7Width64NtNtB7_6traits16EnhancedCrcWidth12create_stateNtNtNtNtB7_4arch7aarch643aes13Aarch64AesOpsECs4dsW9QDrSvF_12no_std_tests
FNDA:14,_RINvXNtNtCs3YYFpeUFfny_8crc_fast5crc649algorithmNtNtB7_7structs7Width64NtNtB7_6traits16EnhancedCrcWidth12create_stateNtNtNtNtB7_4arch7aarch648aes_sha317Aarch64AesSha3OpsECs4dsW9QDrSvF_12no_std_tests
FNDA:0,_RINvXNtNtCs3YYFpeUFfny_8crc_fast5crc649algorithmNtNtB7_7structs7Width64NtNtB7_6traits16EnhancedCrcWidth12create_stateNtNtNtNtB7_4arch7aarch643aes13Aarch64AesOpsECsiyVaUKbNjcY_10wasm_tests
FNDA:9,_RINvXNtNtCs3YYFpeUFfny_8crc_fast5crc649algorithmNtNtB7_7structs7Width64NtNtB7_6traits16EnhancedCrcWidth12create_stateNtNtNtNtB7_4arch7aarch648aes_sha317Aarch64AesSha3OpsECsiyVaUKbNjcY_10wasm_tests
FNF:10
FNH:10
DA:16,4155
DA:17,4155
DA:18,4155
DA:19,4155
DA:20,4155
DA:21,4155
DA:22,4155
DA:23,4155
DA:26,27196
DA:27,27196
DA:28,27196
DA:29,27196
DA:30,27196
DA:31,27196
DA:32,27196
DA:34,27196
DA:35,19433
DA:37,7763
DA:40,27196
DA:41,27196
DA:42,27196
DA:43,27196
DA:44,27196
DA:47,159
DA:48,159
DA:49,159
DA:51,159
DA:52,159
DA:53,113
DA:55,46
DA:57,159
DA:60,2743467
DA:61,2743467
DA:62,2743467
DA:63,2743467
DA:64,2743467
DA:65,2743467
DA:66,2743467
DA:69,2743467
DA:70,2743467
DA:71,2743467
DA:72,2743467
DA:73,2743467
DA:74,2743467
DA:75,2743467
DA:76,2743467
DA:79,26179
DA:80,26179
DA:81,26179
DA:84,26179
DA:86,26179
DA:87,18704
DA:88,18704
DA:89,18704
DA:90,18704
DA:91,18704
DA:92,7475
DA:93,7475
DA:94,7475
DA:95,7475
DA:96,7475
DA:97,26179
DA:100,27037
DA:101,27037
DA:102,27037
DA:103,27037
DA:104,27037
DA:105,27037
DA:106,27037
DA:107,27037
DA:110,27037
DA:111,27037
DA:113,27037
DA:114,19320
DA:115,19320
DA:116,19320
DA:117,19320
DA:119,19320
DA:122,7717
DA:123,7717
DA:124,7717
DA:125,7717
DA:126,7717
DA:128,7717
DA:130,27037
DA:133,176807
DA:134,176807
DA:135,176807
DA:136,176807
DA:137,176807
DA:138,176807
DA:139,176807
DA:140,176807
DA:142,176807
DA:143,176807
DA:146,26179
DA:147,26179
DA:148,26179
DA:149,26179
DA:150,26179
DA:151,26179
DA:152,26179
DA:153,26179
DA:155,26179
DA:156,26179
DA:157,26179
DA:158,26179
DA:161,26179
DA:164,26179
DA:165,26179
DA:168,13620
DA:171,13620
DA:173,9735
DA:174,9735
DA:175,9735
DA:177,0
DA:178,0
DA:179,0
DA:181,0
DA:185,9735
DA:188,3885
DA:189,3885
DA:190,3885
DA:192,0
DA:193,0
DA:194,0
DA:196,0
DA:200,3885
DA:202,13620
DA:212,1842
DA:213,1842
DA:214,1842
DA:215,1842
DA:216,1842
DA:217,1842
DA:218,1842
DA:219,1842
DA:220,1842
DA:223,1842
DA:226,1842
DA:229,1842
DA:232,1842
DA:234,1321
DA:237,1321
DA:239,616
DA:242,705
DA:246,1321
DA:249,1321
DA:251,1321
DA:255,521
DA:256,242
DA:258,279
DA:262,521
DA:266,521
DA:269,521
DA:270,521
DA:271,521
DA:274,521
DA:276,521
DA:278,279
DA:279,279
DA:282,242
DA:286,1842
DA:288,984
DA:289,858
DA:291,858
DA:292,858
DA:293,858
DA:294,858
DA:297,858
DA:298,1842
BRF:0
BRH:0
LF:171
LH:163
end_of_record
SF:/Users/mr.wolf/loadingalias/crc-fast-rust/src/crc64/utils.rs
FN:39,_RINvNtNtCscwG700SpbJM_8crc_fast5crc645utils16print_vector_hexpEB6_
FN:50,_RINvNtNtCscwG700SpbJM_8crc_fast5crc645utils18print_vector_bytespEB6_
FN:22,_RNvNtNtCscwG700SpbJM_8crc_fast5crc645utils13print_xmm_hex
FN:39,_RINvNtNtCs3YYFpeUFfny_8crc_fast5crc645utils16print_vector_hexpEB6_
FN:50,_RINvNtNtCs3YYFpeUFfny_8crc_fast5crc645utils18print_vector_bytespEB6_
FN:22,_RNvNtNtCs3YYFpeUFfny_8crc_fast5crc645utils13print_xmm_hex
FNDA:0,_RINvNtNtCscwG700SpbJM_8crc_fast5crc645utils16print_vector_hexpEB6_
FNDA:0,_RINvNtNtCscwG700SpbJM_8crc_fast5crc645utils18print_vector_bytespEB6_
FNDA:0,_RNvNtNtCscwG700SpbJM_8crc_fast5crc645utils13print_xmm_hex
FNDA:0,_RINvNtNtCs3YYFpeUFfny_8crc_fast5crc645utils16print_vector_hexpEB6_
FNDA:0,_RINvNtNtCs3YYFpeUFfny_8crc_fast5crc645utils18print_vector_bytespEB6_
FNDA:0,_RNvNtNtCs3YYFpeUFfny_8crc_fast5crc645utils13print_xmm_hex
FNF:3
FNH:0
DA:22,0
DA:23,0
DA:24,0
DA:25,0
DA:26,0
DA:39,0
DA:41,0
DA:44,0
DA:45,0
DA:50,0
DA:52,0
DA:55,0
DA:57,0
DA:59,0
DA:60,0
DA:61,0
DA:62,0
DA:64,0
BRF:0
BRH:0
LF:18
LH:0
end_of_record
SF:/Users/mr.wolf/loadingalias/crc-fast-rust/src/enums.rs
FN:84,_RNvMs0_NtCs3YYFpeUFfny_8crc_fast5enumsNtB5_18DataChunkProcessor10for_length
FN:11,_RNvXNtCs3YYFpeUFfny_8crc_fast5enumsNtB4_12CrcAlgorithmNtNtNtCs85QQFkKrybG_4core3str6traits7FromStr8from_str
FN:38,_RNvXs_NtCs3YYFpeUFfny_8crc_fast5enumsNtB6_12CrcAlgorithmNtNtCs85QQFkKrybG_4core3fmt7Display3fmt
FN:11,_RNvXNtCscwG700SpbJM_8crc_fast5enumsNtB4_12CrcAlgorithmNtNtNtCs85QQFkKrybG_4core3str6traits7FromStr8from_str
FN:38,_RNvXs_NtCscwG700SpbJM_8crc_fast5enumsNtB6_12CrcAlgorithmNtNtCs85QQFkKrybG_4core3fmt7Display3fmt
FN:84,_RNvMs0_NtCscwG700SpbJM_8crc_fast5enumsNtB5_18DataChunkProcessor10for_length
FNDA:28,_RNvMs0_NtCs3YYFpeUFfny_8crc_fast5enumsNtB5_18DataChunkProcessor10for_length
FNDA:2,_RNvXNtCs3YYFpeUFfny_8crc_fast5enumsNtB4_12CrcAlgorithmNtNtNtCs85QQFkKrybG_4core3str6traits7FromStr8from_str
FNDA:0,_RNvXs_NtCs3YYFpeUFfny_8crc_fast5enumsNtB6_12CrcAlgorithmNtNtCs85QQFkKrybG_4core3fmt7Display3fmt
FNDA:0,_RNvXNtCscwG700SpbJM_8crc_fast5enumsNtB4_12CrcAlgorithmNtNtNtCs85QQFkKrybG_4core3str6traits7FromStr8from_str
FNDA:0,_RNvXs_NtCscwG700SpbJM_8crc_fast5enumsNtB6_12CrcAlgorithmNtNtCs85QQFkKrybG_4core3fmt7Display3fmt
FNDA:36949,_RNvMs0_NtCscwG700SpbJM_8crc_fast5enumsNtB5_18DataChunkProcessor10for_length
FNF:3
FNH:2
DA:11,2
DA:12,2
DA:13,2
DA:14,2
DA:15,2
DA:16,2
DA:17,2
DA:18,2
DA:19,2
DA:20,0
DA:21,0
DA:22,0
DA:23,0
DA:24,0
DA:25,0
DA:26,0
DA:27,0
DA:28,0
DA:29,0
DA:30,0
DA:31,0
DA:32,0
DA:34,2
DA:38,0
DA:39,0
DA:40,0
DA:41,0
DA:42,0
DA:43,0
DA:44,0
DA:45,0
DA:46,0
DA:47,0
DA:48,0
DA:49,0
DA:50,0
DA:51,0
DA:52,0
DA:53,0
DA:54,0
DA:55,0
DA:56,0
DA:57,0
DA:58,0
DA:59,0
DA:60,0
DA:62,0
DA:84,36977
DA:85,36977
DA:86,36977
DA:87,288
DA:88,32013
DA:89,27693
DA:90,0
DA:92,36977
BRF:0
BRH:0
LF:55
LH:17
end_of_record
SF:/Users/mr.wolf/loadingalias/crc-fast-rust/src/feature_detection.rs
FN:392,_RNvNtCs3YYFpeUFfny_8crc_fast17feature_detection12get_arch_ops
FN:410,_RNvNtCs3YYFpeUFfny_8crc_fast17feature_detection15create_arch_ops
FN:147,_RNvNtCs3YYFpeUFfny_8crc_fast17feature_detection23detect_aarch64_features
FN:271,_RNvNtCs3YYFpeUFfny_8crc_fast17feature_detection23select_performance_tier
FN:113,_RNvNtCs3YYFpeUFfny_8crc_fast17feature_detection24detect_arch_capabilities
FN:421,_RNvNtCs3YYFpeUFfny_8crc_fast17feature_detection25create_arch_ops_from_tier
FN:378,_RNvMNtCs3YYFpeUFfny_8crc_fast17feature_detectionNtB2_15ArchOpsInstance17get_target_string
FN:345,_RNvMNtCs3YYFpeUFfny_8crc_fast17feature_detectionNtB2_15ArchOpsInstance8get_tier
FN:96,_RNvNtCs3YYFpeUFfny_8crc_fast17feature_detection21tier_to_target_string
FN:821,_RNvNtNtCscwG700SpbJM_8crc_fast17feature_detection5testss_26test_x86_feature_hierarchy
FN:559,_RNvNtNtCscwG700SpbJM_8crc_fast17feature_detection5testss_27test_aarch64_tier_selection
FN:615,_RNvNtNtCscwG700SpbJM_8crc_fast17feature_detection5testss_30test_aarch64_feature_hierarchy
FN:1412,_RNvNtNtCscwG700SpbJM_8crc_fast17feature_detection23software_fallback_testss_37test_conditional_compilation_coverage
FN:1346,_RNvNtNtCscwG700SpbJM_8crc_fast17feature_detection23software_fallback_testss_47test_aarch64_without_aes_falls_back_to_software
FN:1369,_RNvNtNtCscwG700SpbJM_8crc_fast17feature_detection23software_fallback_testss_49test_x86_without_pclmulqdq_falls_back_to_software
FN:345,_RNvMNtCscwG700SpbJM_8crc_fast17feature_detectionNtB2_15ArchOpsInstance8get_tier
FN:378,_RNvMNtCscwG700SpbJM_8crc_fast17feature_detectionNtB2_15ArchOpsInstance17get_target_string
FN:96,_RNvNtCscwG700SpbJM_8crc_fast17feature_detection21tier_to_target_string
FN:888,_RNvNtNtNtCscwG700SpbJM_8crc_fast17feature_detection5tests28mock_feature_agreement_testss_34test_feature_dependency_validation
FN:864,_RNvNtNtNtCscwG700SpbJM_8crc_fast17feature_detection5tests28mock_feature_agreement_testss_34test_rust_version_gating_scenarios
FN:392,_RNvNtCscwG700SpbJM_8crc_fast17feature_detection12get_arch_ops
FN:410,_RNvNtCscwG700SpbJM_8crc_fast17feature_detection15create_arch_ops
FN:147,_RNvNtCscwG700SpbJM_8crc_fast17feature_detection23detect_aarch64_features
FN:271,_RNvNtCscwG700SpbJM_8crc_fast17feature_detection23select_performance_tier
FN:113,_RNvNtCscwG700SpbJM_8crc_fast17feature_detection24detect_arch_capabilities
FN:421,_RNvNtCscwG700SpbJM_8crc_fast17feature_detection25create_arch_ops_from_tier
FN:510,_RNvNtCscwG700SpbJM_8crc_fast17feature_detection32select_performance_tier_for_test
FN:1157,_RNvNtNtNtCscwG700SpbJM_8crc_fast17feature_detection5tests34tier_selection_comprehensive_testss_30test_target_string_consistency
FN:1116,_RNvNtNtNtCscwG700SpbJM_8crc_fast17feature_detection5tests34tier_selection_comprehensive_testss_32test_x86_32bit_tier_combinations
FN:992,_RNvNtNtNtCscwG700SpbJM_8crc_fast17feature_detection5tests34tier_selection_comprehensive_testss_33test_all_x86_64_tier_combinations
FN:936,_RNvNtNtNtCscwG700SpbJM_8crc_fast17feature_detection5tests34tier_selection_comprehensive_testss_34test_all_aarch64_tier_combinations
FN:1225,_RNvNtNtNtCscwG700SpbJM_8crc_fast17feature_detection5tests26graceful_degradation_testss_28test_x86_64_degradation_path
FN:1187,_RNvNtNtNtCscwG700SpbJM_8crc_fast17feature_detection5tests26graceful_degradation_testss_29test_aarch64_degradation_path
FN:1277,_RNvNtNtNtCscwG700SpbJM_8crc_fast17feature_detection5tests26graceful_degradation_testss_29test_rust_version_degradation
FN:1300,_RNvNtNtNtCscwG700SpbJM_8crc_fast17feature_detection5tests26graceful_degradation_testss_33test_partial_feature_availability
FNDA:879306,_RNvNtCs3YYFpeUFfny_8crc_fast17feature_detection12get_arch_ops
FNDA:3,_RNvNtCs3YYFpeUFfny_8crc_fast17feature_detection15create_arch_ops
FNDA:3,_RNvNtCs3YYFpeUFfny_8crc_fast17feature_detection23detect_aarch64_features
FNDA:3,_RNvNtCs3YYFpeUFfny_8crc_fast17feature_detection23select_performance_tier
FNDA:3,_RNvNtCs3YYFpeUFfny_8crc_fast17feature_detection24detect_arch_capabilities
FNDA:3,_RNvNtCs3YYFpeUFfny_8crc_fast17feature_detection25create_arch_ops_from_tier
FNDA:1,_RNvMNtCs3YYFpeUFfny_8crc_fast17feature_detectionNtB2_15ArchOpsInstance17get_target_string
FNDA:879277,_RNvMNtCs3YYFpeUFfny_8crc_fast17feature_detectionNtB2_15ArchOpsInstance8get_tier
FNDA:1,_RNvNtCs3YYFpeUFfny_8crc_fast17feature_detection21tier_to_target_string
FNDA:1,_RNvNtNtCscwG700SpbJM_8crc_fast17feature_detection5testss_26test_x86_feature_hierarchy
FNDA:1,_RNvNtNtCscwG700SpbJM_8crc_fast17feature_detection5testss_27test_aarch64_tier_selection
FNDA:1,_RNvNtNtCscwG700SpbJM_8crc_fast17feature_detection5testss_30test_aarch64_feature_hierarchy
FNDA:1,_RNvNtNtCscwG700SpbJM_8crc_fast17feature_detection23software_fallback_testss_37test_conditional_compilation_coverage
FNDA:1,_RNvNtNtCscwG700SpbJM_8crc_fast17feature_detection23software_fallback_testss_47test_aarch64_without_aes_falls_back_to_software
FNDA:1,_RNvNtNtCscwG700SpbJM_8crc_fast17feature_detection23software_fallback_testss_49test_x86_without_pclmulqdq_falls_back_to_software
FNDA:2100,_RNvMNtCscwG700SpbJM_8crc_fast17feature_detectionNtB2_15ArchOpsInstance8get_tier
FNDA:6,_RNvMNtCscwG700SpbJM_8crc_fast17feature_detectionNtB2_15ArchOpsInstance17get_target_string
FNDA:13,_RNvNtCscwG700SpbJM_8crc_fast17feature_detection21tier_to_target_string
FNDA:1,_RNvNtNtNtCscwG700SpbJM_8crc_fast17feature_detection5tests28mock_feature_agreement_testss_34test_feature_dependency_validation
FNDA:1,_RNvNtNtNtCscwG700SpbJM_8crc_fast17feature_detection5tests28mock_feature_agreement_testss_34test_rust_version_gating_scenarios
FNDA:39465,_RNvNtCscwG700SpbJM_8crc_fast17feature_detection12get_arch_ops
FNDA:1,_RNvNtCscwG700SpbJM_8crc_fast17feature_detection15create_arch_ops
FNDA:1,_RNvNtCscwG700SpbJM_8crc_fast17feature_detection23detect_aarch64_features
FNDA:1,_RNvNtCscwG700SpbJM_8crc_fast17feature_detection23select_performance_tier
FNDA:1,_RNvNtCscwG700SpbJM_8crc_fast17feature_detection24detect_arch_capabilities
FNDA:1,_RNvNtCscwG700SpbJM_8crc_fast17feature_detection25create_arch_ops_from_tier
FNDA:32,_RNvNtCscwG700SpbJM_8crc_fast17feature_detection32select_performance_tier_for_test
FNDA:1,_RNvNtNtNtCscwG700SpbJM_8crc_fast17feature_detection5tests34tier_selection_comprehensive_testss_30test_target_string_consistency
FNDA:1,_RNvNtNtNtCscwG700SpbJM_8crc_fast17feature_detection5tests34tier_selection_comprehensive_testss_32test_x86_32bit_tier_combinations
FNDA:1,_RNvNtNtNtCscwG700SpbJM_8crc_fast17feature_detection5tests34tier_selection_comprehensive_testss_33test_all_x86_64_tier_combinations
FNDA:1,_RNvNtNtNtCscwG700SpbJM_8crc_fast17feature_detection5tests34tier_selection_comprehensive_testss_34test_all_aarch64_tier_combinations
FNDA:1,_RNvNtNtNtCscwG700SpbJM_8crc_fast17feature_detection5tests26graceful_degradation_testss_28test_x86_64_degradation_path
FNDA:1,_RNvNtNtNtCscwG700SpbJM_8crc_fast17feature_detection5tests26graceful_degradation_testss_29test_aarch64_degradation_path
FNDA:1,_RNvNtNtNtCscwG700SpbJM_8crc_fast17feature_detection5tests26graceful_degradation_testss_29test_rust_version_degradation
FNDA:1,_RNvNtNtNtCscwG700SpbJM_8crc_fast17feature_detection5tests26graceful_degradation_testss_33test_partial_feature_availability
FNF:26
FNH:26
DA:96,14
DA:97,14
DA:98,8
DA:99,1
DA:100,1
DA:101,1
DA:102,1
DA:103,1
DA:104,1
DA:106,14
DA:113,4
DA:116,4
DA:139,4
DA:147,4
DA:151,4
DA:154,4
DA:158,4
DA:160,4
DA:161,4
DA:162,4
DA:163,4
DA:164,4
DA:165,4
DA:166,4
DA:167,4
DA:168,4
DA:169,4
DA:170,4
DA:171,4
DA:271,4
DA:274,4
DA:275,4
DA:276,0
DA:278,0
DA:279,0
DA:280,0
DA:304,0
DA:305,4
DA:345,881377
DA:346,881377
DA:348,0
DA:350,881377
DA:357,0
DA:359,881377
DA:378,7
DA:379,7
DA:380,7
DA:392,918771
DA:393,918771
DA:394,918771
DA:410,4
DA:411,4
DA:412,4
DA:414,4
DA:415,4
DA:421,4
DA:422,4
DA:426,4
DA:431,0
DA:449,0
DA:455,0
DA:458,4
DA:510,32
DA:512,32
DA:513,3
DA:514,29
DA:516,29
DA:517,3
DA:518,26
DA:521,26
DA:522,7
DA:523,5
DA:525,2
DA:526,24
DA:529,24
DA:530,6
DA:531,6
DA:533,2
DA:534,22
DA:537,22
DA:538,9
DA:539,13
DA:542,13
DA:543,32
DA:559,1
DA:563,1
DA:564,1
DA:565,1
DA:566,1
DA:567,1
DA:568,1
DA:569,1
DA:570,1
DA:571,1
DA:572,1
DA:573,1
DA:574,1
DA:575,1
DA:580,1
DA:581,1
DA:582,1
DA:583,1
DA:584,1
DA:585,1
DA:586,1
DA:587,1
DA:588,1
DA:589,1
DA:590,1
DA:591,1
DA:592,1
DA:597,1
DA:598,1
DA:599,1
DA:600,1
DA:601,1
DA:602,1
DA:603,1
DA:604,1
DA:605,1
DA:606,1
DA:607,1
DA:608,1
DA:609,1
DA:612,1
DA:615,1
DA:621,1
DA:622,1
DA:623,1
DA:624,1
DA:625,1
DA:626,1
DA:627,1
DA:628,1
DA:629,1
DA:630,1
DA:631,1
DA:634,1
DA:637,1
DA:638,1
DA:639,1
DA:640,1
DA:641,1
DA:642,1
DA:643,1
DA:644,1
DA:645,1
DA:646,1
DA:647,1
DA:649,1
DA:650,1
DA:651,1
DA:821,1
DA:828,1
DA:829,1
DA:830,1
DA:831,1
DA:832,1
DA:833,1
DA:834,1
DA:835,1
DA:836,1
DA:837,1
DA:838,1
DA:841,1
DA:842,1
DA:843,1
DA:844,1
DA:845,1
DA:846,1
DA:864,1
DA:868,1
DA:869,1
DA:870,1
DA:871,1
DA:872,1
DA:873,1
DA:874,1
DA:875,1
DA:876,1
DA:877,1
DA:878,1
DA:881,1
DA:882,1
DA:883,1
DA:884,1
DA:885,1
DA:888,1
DA:892,1
DA:893,1
DA:894,1
DA:895,1
DA:896,1
DA:897,1
DA:898,1
DA:899,1
DA:900,1
DA:901,1
DA:902,1
DA:905,1
DA:906,1
DA:911,1
DA:912,1
DA:913,1
DA:914,1
DA:915,1
DA:916,1
DA:917,1
DA:918,1
DA:919,1
DA:920,1
DA:921,1
DA:924,1
DA:925,1
DA:928,1
DA:936,1
DA:940,1
DA:941,1
DA:942,1
DA:943,1
DA:944,1
DA:945,1
DA:946,1
DA:947,1
DA:948,1
DA:949,1
DA:950,1
DA:951,1
DA:952,1
DA:957,1
DA:958,1
DA:959,1
DA:960,1
DA:961,1
DA:962,1
DA:963,1
DA:964,1
DA:965,1
DA:966,1
DA:967,1
DA:968,1
DA:969,1
DA:974,1
DA:975,1
DA:976,1
DA:977,1
DA:978,1
DA:979,1
DA:980,1
DA:981,1
DA:982,1
DA:983,1
DA:984,1
DA:985,1
DA:986,1
DA:989,1
DA:992,1
DA:996,1
DA:997,1
DA:998,1
DA:999,1
DA:1000,1
DA:1001,1
DA:1002,1
DA:1003,1
DA:1004,1
DA:1005,1
DA:1006,1
DA:1007,1
DA:1008,1
DA:1013,1
DA:1014,1
DA:1015,1
DA:1016,1
DA:1017,1
DA:1018,1
DA:1019,1
DA:1020,1
DA:1021,1
DA:1022,1
DA:1023,1
DA:1024,1
DA:1025,1
DA:1030,1
DA:1031,1
DA:1032,1
DA:1033,1
DA:1034,1
DA:1035,1
DA:1036,1
DA:1037,1
DA:1038,1
DA:1039,1
DA:1040,1
DA:1041,1
DA:1042,1
DA:1047,1
DA:1048,1
DA:1049,1
DA:1050,1
DA:1051,1
DA:1052,1
DA:1053,1
DA:1054,1
DA:1055,1
DA:1056,1
DA:1057,1
DA:1058,1
DA:1059,1
DA:1064,1
DA:1065,1
DA:1066,1
DA:1067,1
DA:1068,1
DA:1069,1
DA:1070,1
DA:1071,1
DA:1072,1
DA:1073,1
DA:1074,1
DA:1075,1
DA:1076,1
DA:1081,1
DA:1082,1
DA:1083,1
DA:1084,1
DA:1085,1
DA:1086,1
DA:1087,1
DA:1088,1
DA:1089,1
DA:1090,1
DA:1091,1
DA:1092,1
DA:1093,1
DA:1098,1
DA:1099,1
DA:1100,1
DA:1101,1
DA:1102,1
DA:1103,1
DA:1104,1
DA:1105,1
DA:1106,1
DA:1107,1
DA:1108,1
DA:1109,1
DA:1110,1
DA:1113,1
DA:1116,1
DA:1120,1
DA:1121,1
DA:1122,1
DA:1123,1
DA:1124,1
DA:1125,1
DA:1126,1
DA:1127,1
DA:1128,1
DA:1129,1
DA:1130,1
DA:1131,1
DA:1132,1
DA:1138,1
DA:1139,1
DA:1140,1
DA:1141,1
DA:1142,1
DA:1143,1
DA:1144,1
DA:1145,1
DA:1146,1
DA:1147,1
DA:1148,1
DA:1150,1
DA:1151,1
DA:1154,1
DA:1157,1
DA:1160,1
DA:1161,1
DA:1162,1
DA:1163,1
DA:1164,1
DA:1165,1
DA:1166,1
DA:1167,1
DA:1168,1
DA:1169,1
DA:1170,1
DA:1171,1
DA:1172,1
DA:1173,1
DA:1174,1
DA:1176,8
DA:1177,7
DA:1179,1
DA:1187,1
DA:1191,1
DA:1192,1
DA:1193,1
DA:1194,1
DA:1195,1
DA:1196,1
DA:1197,1
DA:1198,1
DA:1199,1
DA:1200,1
DA:1201,1
DA:1204,1
DA:1205,1
DA:1210,1
DA:1211,1
DA:1212,1
DA:1217,1
DA:1218,1
DA:1219,1
DA:1222,1
DA:1225,1
DA:1229,1
DA:1230,1
DA:1231,1
DA:1232,1
DA:1233,1
DA:1234,1
DA:1235,1
DA:1236,1
DA:1237,1
DA:1238,1
DA:1239,1
DA:1242,1
DA:1243,1
DA:1248,1
DA:1249,1
DA:1250,1
DA:1255,1
DA:1256,1
DA:1257,1
DA:1262,1
DA:1263,1
DA:1264,1
DA:1269,1
DA:1270,1
DA:1271,1
DA:1274,1
DA:1277,1
DA:1280,1
DA:1281,1
DA:1282,1
DA:1283,1
DA:1284,1
DA:1285,1
DA:1286,1
DA:1287,1
DA:1288,1
DA:1289,1
DA:1290,1
DA:1293,1
DA:1294,1
DA:1297,1
DA:1300,1
DA:1304,1
DA:1305,1
DA:1306,1
DA:1307,1
DA:1308,1
DA:1309,1
DA:1310,1
DA:1311,1
DA:1312,1
DA:1313,1
DA:1314,1
DA:1316,1
DA:1317,1
DA:1322,1
DA:1323,1
DA:1324,1
DA:1325,1
DA:1326,1
DA:1327,1
DA:1328,1
DA:1329,1
DA:1330,1
DA:1331,1
DA:1332,1
DA:1334,1
DA:1335,1
DA:1338,1
DA:1346,1
DA:1348,1
DA:1349,1
DA:1350,1
DA:1351,1
DA:1352,1
DA:1353,1
DA:1354,1
DA:1355,1
DA:1356,1
DA:1357,1
DA:1358,1
DA:1360,1
DA:1361,1
DA:1364,0
DA:1366,1
DA:1369,1
DA:1371,1
DA:1372,1
DA:1373,1
DA:1374,1
DA:1375,1
DA:1376,1
DA:1377,1
DA:1378,1
DA:1379,1
DA:1380,1
DA:1381,1
DA:1383,1
DA:1384,1
DA:1387,0
DA:1391,1
DA:1392,1
DA:1393,1
DA:1394,1
DA:1395,1
DA:1396,1
DA:1397,1
DA:1398,1
DA:1399,1
DA:1400,1
DA:1401,1
DA:1403,1
DA:1404,1
DA:1407,0
DA:1409,1
DA:1412,1
DA:1431,1
BRF:0
BRH:0
LF:535
LH:522
end_of_record
SF:/Users/mr.wolf/loadingalias/crc-fast-rust/src/ffi.rs
FN:278,_RNvXs0_NtCs3YYFpeUFfny_8crc_fast3ffiNtB7_9CrcParamsINtNtCs85QQFkKrybG_4core7convert4FromNtB5_13CrcFastParamsE4from
FN:166,_RNvXs_NtCs3YYFpeUFfny_8crc_fast3ffiNtB6_12CrcAlgorithmINtNtCs85QQFkKrybG_4core7convert4FromNtB4_16CrcFastAlgorithmE4from
FN:70,_RNCNvNtCs3YYFpeUFfny_8crc_fast3ffi14set_last_error0B5_
FN:75,_RNCNvNtCs3YYFpeUFfny_8crc_fast3ffi16clear_last_error0B5_
FN:792,_RNCNvNtCs3YYFpeUFfny_8crc_fast3ffi18get_or_leak_string0B5_
FN:197,_RNCNvNtCs3YYFpeUFfny_8crc_fast3ffi23crc_fast_get_last_error0B5_
FN:86,_RNCNvNtCs3YYFpeUFfny_8crc_fast3ffi25create_stable_key_pointer0B5_
FN:49,_RNvMNtCs3YYFpeUFfny_8crc_fast3ffiNtB2_12CrcFastError7message
FN:69,_RNvNtCs3YYFpeUFfny_8crc_fast3ffi14set_last_error
FN:74,_RNvNtCs3YYFpeUFfny_8crc_fast3ffi16clear_last_error
FN:779,_RNvNtCs3YYFpeUFfny_8crc_fast3ffi17convert_to_string
FN:791,_RNvNtCs3YYFpeUFfny_8crc_fast3ffi18get_or_leak_string
FN:240,_RNvNtCs3YYFpeUFfny_8crc_fast3ffi19try_params_from_ffi
FN:85,_RNvNtCs3YYFpeUFfny_8crc_fast3ffi25create_stable_key_pointer
FN:286,_RNvXs1_NtCs3YYFpeUFfny_8crc_fast3ffiNtB5_13CrcFastParamsINtNtCs85QQFkKrybG_4core7convert4FromNtB7_9CrcParamsE4from
FN:517,crc_fast_checksum
FN:643,crc_fast_checksum_combine
FN:657,crc_fast_checksum_combine_with_params
FN:571,crc_fast_checksum_file
FN:603,crc_fast_checksum_file_with_params
FN:538,crc_fast_checksum_with_params
FN:202,crc_fast_clear_error
FN:466,crc_fast_digest_combine
FN:403,crc_fast_digest_finalize
FN:450,crc_fast_digest_finalize_reset
FN:418,crc_fast_digest_free
FN:486,crc_fast_digest_get_amount
FN:502,crc_fast_digest_get_state
FN:329,crc_fast_digest_new
FN:338,crc_fast_digest_new_with_init_state
FN:352,crc_fast_digest_new_with_params
FN:433,crc_fast_digest_reset
FN:376,crc_fast_digest_update
FN:209,crc_fast_error_message
FN:750,crc_fast_get_calculator_target
FN:682,crc_fast_get_custom_params
FN:196,crc_fast_get_last_error
FN:768,crc_fast_get_version
FN:278,_RNvXs0_NtCscwG700SpbJM_8crc_fast3ffiNtB7_9CrcParamsINtNtCs85QQFkKrybG_4core7convert4FromNtB5_13CrcFastParamsE4from
FN:166,_RNvXs_NtCscwG700SpbJM_8crc_fast3ffiNtB6_12CrcAlgorithmINtNtCs85QQFkKrybG_4core7convert4FromNtB4_16CrcFastAlgorithmE4from
FN:49,_RNvMNtCscwG700SpbJM_8crc_fast3ffiNtB2_12CrcFastError7message
FN:69,_RNvNtCscwG700SpbJM_8crc_fast3ffi14set_last_error
FN:74,_RNvNtCscwG700SpbJM_8crc_fast3ffi16clear_last_error
FN:779,_RNvNtCscwG700SpbJM_8crc_fast3ffi17convert_to_string
FN:791,_RNvNtCscwG700SpbJM_8crc_fast3ffi18get_or_leak_string
FN:240,_RNvNtCscwG700SpbJM_8crc_fast3ffi19try_params_from_ffi
FN:85,_RNvNtCscwG700SpbJM_8crc_fast3ffi25create_stable_key_pointer
FN:286,_RNvXs1_NtCscwG700SpbJM_8crc_fast3ffiNtB5_13CrcFastParamsINtNtCs85QQFkKrybG_4core7convert4FromNtB7_9CrcParamsE4from
FN:70,_RNCNvNtCscwG700SpbJM_8crc_fast3ffi14set_last_error0B5_
FN:75,_RNCNvNtCscwG700SpbJM_8crc_fast3ffi16clear_last_error0B5_
FN:792,_RNCNvNtCscwG700SpbJM_8crc_fast3ffi18get_or_leak_string0B5_
FN:197,_RNCNvNtCscwG700SpbJM_8crc_fast3ffi23crc_fast_get_last_error0B5_
FN:86,_RNCNvNtCscwG700SpbJM_8crc_fast3ffi25create_stable_key_pointer0B5_
FNDA:0,_RNvXs0_NtCs3YYFpeUFfny_8crc_fast3ffiNtB7_9CrcParamsINtNtCs85QQFkKrybG_4core7convert4FromNtB5_13CrcFastParamsE4from
FNDA:0,_RNvXs_NtCs3YYFpeUFfny_8crc_fast3ffiNtB6_12CrcAlgorithmINtNtCs85QQFkKrybG_4core7convert4FromNtB4_16CrcFastAlgorithmE4from
FNDA:0,_RNCNvNtCs3YYFpeUFfny_8crc_fast3ffi14set_last_error0B5_
FNDA:0,_RNCNvNtCs3YYFpeUFfny_8crc_fast3ffi16clear_last_error0B5_
FNDA:0,_RNCNvNtCs3YYFpeUFfny_8crc_fast3ffi18get_or_leak_string0B5_
FNDA:0,_RNCNvNtCs3YYFpeUFfny_8crc_fast3ffi23crc_fast_get_last_error0B5_
FNDA:0,_RNCNvNtCs3YYFpeUFfny_8crc_fast3ffi25create_stable_key_pointer0B5_
FNDA:0,_RNvMNtCs3YYFpeUFfny_8crc_fast3ffiNtB2_12CrcFastError7message
FNDA:0,_RNvNtCs3YYFpeUFfny_8crc_fast3ffi14set_last_error
FNDA:0,_RNvNtCs3YYFpeUFfny_8crc_fast3ffi16clear_last_error
FNDA:0,_RNvNtCs3YYFpeUFfny_8crc_fast3ffi17convert_to_string
FNDA:0,_RNvNtCs3YYFpeUFfny_8crc_fast3ffi18get_or_leak_string
FNDA:0,_RNvNtCs3YYFpeUFfny_8crc_fast3ffi19try_params_from_ffi
FNDA:0,_RNvNtCs3YYFpeUFfny_8crc_fast3ffi25create_stable_key_pointer
FNDA:0,_RNvXs1_NtCs3YYFpeUFfny_8crc_fast3ffiNtB5_13CrcFastParamsINtNtCs85QQFkKrybG_4core7convert4FromNtB7_9CrcParamsE4from
FNDA:0,crc_fast_checksum
FNDA:0,crc_fast_checksum_combine
FNDA:0,crc_fast_checksum_combine_with_params
FNDA:0,crc_fast_checksum_file
FNDA:0,crc_fast_checksum_file_with_params
FNDA:0,crc_fast_checksum_with_params
FNDA:0,crc_fast_clear_error
FNDA:0,crc_fast_digest_combine
FNDA:0,crc_fast_digest_finalize
FNDA:0,crc_fast_digest_finalize_reset
FNDA:0,crc_fast_digest_free
FNDA:0,crc_fast_digest_get_amount
FNDA:0,crc_fast_digest_get_state
FNDA:0,crc_fast_digest_new
FNDA:0,crc_fast_digest_new_with_init_state
FNDA:0,crc_fast_digest_new_with_params
FNDA:0,crc_fast_digest_reset
FNDA:0,crc_fast_digest_update
FNDA:0,crc_fast_error_message
FNDA:0,crc_fast_get_calculator_target
FNDA:0,crc_fast_get_custom_params
FNDA:0,crc_fast_get_last_error
FNDA:0,crc_fast_get_version
FNDA:6,_RNvXs0_NtCscwG700SpbJM_8crc_fast3ffiNtB7_9CrcParamsINtNtCs85QQFkKrybG_4core7convert4FromNtB5_13CrcFastParamsE4from
FNDA:6,_RNvXs_NtCscwG700SpbJM_8crc_fast3ffiNtB6_12CrcAlgorithmINtNtCs85QQFkKrybG_4core7convert4FromNtB4_16CrcFastAlgorithmE4from
FNDA:0,_RNvMNtCscwG700SpbJM_8crc_fast3ffiNtB2_12CrcFastError7message
FNDA:0,_RNvNtCscwG700SpbJM_8crc_fast3ffi14set_last_error
FNDA:1,_RNvNtCscwG700SpbJM_8crc_fast3ffi16clear_last_error
FNDA:0,_RNvNtCscwG700SpbJM_8crc_fast3ffi17convert_to_string
FNDA:1,_RNvNtCscwG700SpbJM_8crc_fast3ffi18get_or_leak_string
FNDA:6,_RNvNtCscwG700SpbJM_8crc_fast3ffi19try_params_from_ffi
FNDA:9,_RNvNtCscwG700SpbJM_8crc_fast3ffi25create_stable_key_pointer
FNDA:8,_RNvXs1_NtCscwG700SpbJM_8crc_fast3ffiNtB5_13CrcFastParamsINtNtCs85QQFkKrybG_4core7convert4FromNtB7_9CrcParamsE4from
FNDA:0,_RNCNvNtCscwG700SpbJM_8crc_fast3ffi14set_last_error0B5_
FNDA:1,_RNCNvNtCscwG700SpbJM_8crc_fast3ffi16clear_last_error0B5_
FNDA:1,_RNCNvNtCscwG700SpbJM_8crc_fast3ffi18get_or_leak_string0B5_
FNDA:0,_RNCNvNtCscwG700SpbJM_8crc_fast3ffi23crc_fast_get_last_error0B5_
FNDA:1,_RNCNvNtCscwG700SpbJM_8crc_fast3ffi25create_stable_key_pointer0B5_
FNF:38
FNH:10
DA:49,0
DA:50,0
DA:51,0
DA:52,0
DA:53,0
DA:54,0
DA:55,0
DA:56,0
DA:57,0
DA:58,0
DA:60,0
DA:69,0
DA:70,0
DA:71,0
DA:74,1
DA:75,1
DA:76,1
DA:85,9
DA:86,9
DA:89,9
DA:90,7
DA:91,7
DA:93,7
DA:94,7
DA:96,2
DA:97,2
DA:99,2
DA:100,2
DA:104,9
DA:105,9
DA:107,0
DA:108,0
DA:113,9
DA:114,2
DA:115,7
DA:118,7
DA:119,5
DA:120,2
DA:123,7
DA:124,7
DA:126,7
DA:128,7
DA:130,7
DA:131,9
DA:166,6
DA:167,6
DA:168,0
DA:169,0
DA:170,0
DA:171,0
DA:172,0
DA:173,0
DA:174,4
DA:175,0
DA:176,0
DA:177,0
DA:178,0
DA:179,0
DA:180,0
DA:181,2
DA:182,0
DA:183,0
DA:184,0
DA:185,0
DA:186,0
DA:187,0
DA:188,0
DA:190,6
DA:196,0
DA:197,0
DA:198,0
DA:202,0
DA:203,0
DA:204,0
DA:209,0
DA:210,0
DA:213,0
DA:214,0
DA:217,0
DA:219,0
DA:221,0
DA:240,6
DA:242,6
DA:243,0
DA:244,6
DA:247,6
DA:249,6
DA:250,4
DA:251,4
DA:252,0
DA:254,2
DA:255,2
DA:256,0
DA:258,0
DA:261,6
DA:262,6
DA:263,6
DA:264,6
DA:265,6
DA:266,6
DA:267,6
DA:268,6
DA:269,6
DA:270,6
DA:271,6
DA:272,6
DA:273,6
DA:278,6
DA:279,6
DA:280,6
DA:281,6
DA:286,8
DA:288,8
DA:291,8
DA:292,0
DA:293,0
DA:294,0
DA:295,0
DA:296,0
DA:297,0
DA:298,6
DA:299,0
DA:300,0
DA:301,0
DA:302,0
DA:303,0
DA:304,0
DA:305,2
DA:306,0
DA:307,0
DA:308,0
DA:309,0
DA:310,0
DA:311,0
DA:312,0
DA:314,8
DA:315,8
DA:316,8
DA:317,8
DA:318,8
DA:319,8
DA:320,8
DA:321,8
DA:322,8
DA:324,8
DA:329,0
DA:330,0
DA:331,0
DA:332,0
DA:333,0
DA:334,0
DA:338,0
DA:339,0
DA:340,0
DA:341,0
DA:342,0
DA:343,0
DA:344,0
DA:345,0
DA:346,0
DA:352,0
DA:353,0
DA:354,0
DA:355,0
DA:356,0
DA:357,0
DA:358,0
DA:359,0
DA:360,0
DA:364,0
DA:365,0
DA:366,0
DA:367,0
DA:368,0
DA:369,0
DA:372,0
DA:376,0
DA:377,0
DA:378,0
DA:379,0
DA:380,0
DA:381,0
DA:382,0
DA:383,0
DA:384,0
DA:385,0
DA:386,0
DA:387,0
DA:388,0
DA:390,0
DA:391,0
DA:392,0
DA:393,0
DA:394,0
DA:395,0
DA:396,0
DA:397,0
DA:398,0
DA:403,0
DA:404,0
DA:405,0
DA:406,0
DA:407,0
DA:409,0
DA:411,0
DA:412,0
DA:414,0
DA:418,0
DA:419,0
DA:420,0
DA:421,0
DA:422,0
DA:424,0
DA:425,0
DA:426,0
DA:427,0
DA:428,0
DA:429,0
DA:433,0
DA:434,0
DA:435,0
DA:436,0
DA:437,0
DA:439,0
DA:440,0
DA:441,0
DA:442,0
DA:443,0
DA:444,0
DA:445,0
DA:450,0
DA:451,0
DA:452,0
DA:453,0
DA:454,0
DA:456,0
DA:458,0
DA:460,0
DA:462,0
DA:466,0
DA:467,0
DA:468,0
DA:469,0
DA:470,0
DA:471,0
DA:472,0
DA:473,0
DA:475,0
DA:476,0
DA:477,0
DA:478,0
DA:479,0
DA:480,0
DA:481,0
DA:486,0
DA:487,0
DA:488,0
DA:489,0
DA:490,0
DA:492,0
DA:494,0
DA:495,0
DA:497,0
DA:502,0
DA:503,0
DA:504,0
DA:505,0
DA:506,0
DA:507,0
DA:509,0
DA:510,0
DA:512,0
DA:517,0
DA:518,0
DA:519,0
DA:520,0
DA:521,0
DA:522,0
DA:523,0
DA:524,0
DA:525,0
DA:526,0
DA:529,0
DA:530,0
DA:532,0
DA:538,0
DA:539,0
DA:540,0
DA:541,0
DA:542,0
DA:543,0
DA:544,0
DA:545,0
DA:546,0
DA:547,0
DA:548,0
DA:549,0
DA:552,0
DA:553,0
DA:557,0
DA:558,0
DA:559,0
DA:560,0
DA:561,0
DA:562,0
DA:565,0
DA:571,0
DA:572,0
DA:573,0
DA:574,0
DA:575,0
DA:576,0
DA:577,0
DA:578,0
DA:579,0
DA:582,0
DA:583,0
DA:584,0
DA:585,0
DA:586,0
DA:587,0
DA:588,0
DA:589,0
DA:592,0
DA:593,0
DA:597,0
DA:603,0
DA:604,0
DA:605,0
DA:606,0
DA:607,0
DA:608,0
DA:609,0
DA:610,0
DA:611,0
DA:613,0
DA:614,0
DA:615,0
DA:616,0
DA:617,0
DA:618,0
DA:619,0
DA:620,0
DA:621,0
DA:622,0
DA:625,0
DA:626,0
DA:631,0
DA:632,0
DA:633,0
DA:634,0
DA:635,0
DA:636,0
DA:639,0
DA:643,0
DA:644,0
DA:645,0
DA:646,0
DA:647,0
DA:648,0
DA:649,0
DA:650,0
DA:651,0
DA:657,0
DA:658,0
DA:659,0
DA:660,0
DA:661,0
DA:662,0
DA:663,0
DA:664,0
DA:665,0
DA:666,0
DA:669,0
DA:670,0
DA:671,0
DA:672,0
DA:673,0
DA:674,0
DA:677,0
DA:682,0
DA:683,0
DA:684,0
DA:685,0
DA:686,0
DA:687,0
DA:688,0
DA:689,0
DA:690,0
DA:692,0
DA:693,0
DA:694,0
DA:695,0
DA:696,0
DA:698,0
DA:699,0
DA:702,0
DA:703,0
DA:705,0
DA:706,0
DA:713,0
DA:714,0
DA:715,0
DA:716,0
DA:717,0
DA:718,0
DA:719,0
DA:720,0
DA:724,0
DA:728,0
DA:729,0
DA:730,0
DA:732,0
DA:734,0
DA:735,0
DA:736,0
DA:737,0
DA:738,0
DA:739,0
DA:740,0
DA:741,0
DA:742,0
DA:744,0
DA:750,0
DA:751,0
DA:753,0
DA:754,0
DA:755,0
DA:756,0
DA:759,0
DA:760,0
DA:763,0
DA:768,0
DA:776,0
DA:777,0
DA:779,0
DA:780,0
DA:781,0
DA:782,0
DA:785,0
DA:786,0
DA:787,0
DA:789,0
DA:791,1
DA:792,1
DA:793,1
DA:796,1
DA:797,0
DA:798,1
DA:801,1
DA:802,1
DA:803,1
DA:804,1
BRF:0
BRH:0
LF:458
LH:86
end_of_record
SF:/Users/mr.wolf/loadingalias/crc-fast-rust/src/generate.rs
FN:549,_RINvNtCs3YYFpeUFfny_8crc_fast8generate11bit_reversemEB4_
FN:549,_RINvNtCs3YYFpeUFfny_8crc_fast8generate11bit_reverseyEB4_
FN:346,_RNvNtCs3YYFpeUFfny_8crc_fast8generate10polynomial
FN:383,_RNvNtCs3YYFpeUFfny_8crc_fast8generate16crc32_polynomial
FN:410,_RNvNtCs3YYFpeUFfny_8crc_fast8generate16crc64_polynomial
FN:419,_RNvNtCs3YYFpeUFfny_8crc_fast8generate2mu
FN:237,_RNvNtCs3YYFpeUFfny_8crc_fast8generate3key
FN:210,_RNvNtCs3YYFpeUFfny_8crc_fast8generate4keys
FN:453,_RNvNtCs3YYFpeUFfny_8crc_fast8generate8crc32_mu
FN:507,_RNvNtCs3YYFpeUFfny_8crc_fast8generate8crc64_mu
FN:273,_RNvNtCs3YYFpeUFfny_8crc_fast8generate9crc32_key
FN:323,_RNvNtCs3YYFpeUFfny_8crc_fast8generate9crc64_key
FN:346,_RNvNtCscwG700SpbJM_8crc_fast8generate10polynomial
FN:383,_RNvNtCscwG700SpbJM_8crc_fast8generate16crc32_polynomial
FN:410,_RNvNtCscwG700SpbJM_8crc_fast8generate16crc64_polynomial
FN:419,_RNvNtCscwG700SpbJM_8crc_fast8generate2mu
FN:237,_RNvNtCscwG700SpbJM_8crc_fast8generate3key
FN:210,_RNvNtCscwG700SpbJM_8crc_fast8generate4keys
FN:453,_RNvNtCscwG700SpbJM_8crc_fast8generate8crc32_mu
FN:507,_RNvNtCscwG700SpbJM_8crc_fast8generate8crc64_mu
FN:273,_RNvNtCscwG700SpbJM_8crc_fast8generate9crc32_key
FN:323,_RNvNtCscwG700SpbJM_8crc_fast8generate9crc64_key
FN:586,_RNvNtNtCscwG700SpbJM_8crc_fast8generate5testss_8test_all
FN:549,_RINvNtCscwG700SpbJM_8crc_fast8generate11bit_reversemEB4_
FN:549,_RINvNtCscwG700SpbJM_8crc_fast8generate11bit_reverseyEB4_
FNDA:2,_RINvNtCs3YYFpeUFfny_8crc_fast8generate11bit_reversemEB4_
FNDA:42,_RINvNtCs3YYFpeUFfny_8crc_fast8generate11bit_reverseyEB4_
FNDA:2,_RNvNtCs3YYFpeUFfny_8crc_fast8generate10polynomial
FNDA:2,_RNvNtCs3YYFpeUFfny_8crc_fast8generate16crc32_polynomial
FNDA:0,_RNvNtCs3YYFpeUFfny_8crc_fast8generate16crc64_polynomial
FNDA:2,_RNvNtCs3YYFpeUFfny_8crc_fast8generate2mu
FNDA:44,_RNvNtCs3YYFpeUFfny_8crc_fast8generate3key
FNDA:2,_RNvNtCs3YYFpeUFfny_8crc_fast8generate4keys
FNDA:2,_RNvNtCs3YYFpeUFfny_8crc_fast8generate8crc32_mu
FNDA:0,_RNvNtCs3YYFpeUFfny_8crc_fast8generate8crc64_mu
FNDA:44,_RNvNtCs3YYFpeUFfny_8crc_fast8generate9crc32_key
FNDA:0,_RNvNtCs3YYFpeUFfny_8crc_fast8generate9crc64_key
FNDA:2680,_RNvNtCscwG700SpbJM_8crc_fast8generate10polynomial
FNDA:1517,_RNvNtCscwG700SpbJM_8crc_fast8generate16crc32_polynomial
FNDA:1163,_RNvNtCscwG700SpbJM_8crc_fast8generate16crc64_polynomial
FNDA:2680,_RNvNtCscwG700SpbJM_8crc_fast8generate2mu
FNDA:58960,_RNvNtCscwG700SpbJM_8crc_fast8generate3key
FNDA:2680,_RNvNtCscwG700SpbJM_8crc_fast8generate4keys
FNDA:1517,_RNvNtCscwG700SpbJM_8crc_fast8generate8crc32_mu
FNDA:1163,_RNvNtCscwG700SpbJM_8crc_fast8generate8crc64_mu
FNDA:33374,_RNvNtCscwG700SpbJM_8crc_fast8generate9crc32_key
FNDA:25586,_RNvNtCscwG700SpbJM_8crc_fast8generate9crc64_key
FNDA:1,_RNvNtNtCscwG700SpbJM_8crc_fast8generate5testss_8test_all
FNDA:747,_RINvNtCscwG700SpbJM_8crc_fast8generate11bit_reversemEB4_
FNDA:23919,_RINvNtCscwG700SpbJM_8crc_fast8generate11bit_reverseyEB4_
FNF:12
FNH:12
DA:210,2682
DA:211,2682
DA:213,2682
DA:214,1519
DA:215,1163
DA:216,1163
DA:218,0
DA:221,2682
DA:222,1519
DA:224,1163
DA:227,61686
DA:228,59004
DA:229,59004
DA:231,2682
DA:232,2682
DA:234,2682
DA:235,2682
DA:237,59004
DA:238,59004
DA:239,33418
DA:240,25586
DA:241,25586
DA:243,0
DA:245,59004
DA:273,33418
DA:274,33418
DA:275,3038
DA:276,30380
DA:278,30380
DA:279,30380
DA:281,30380
DA:282,19522188
DA:283,19522188
DA:284,9634864
DA:285,9887324
DA:288,30380
DA:289,14980
DA:291,15400
DA:293,33418
DA:323,25586
DA:324,25586
DA:325,3489
DA:326,22097
DA:328,22097
DA:329,22097
DA:330,7448
DA:332,14649
DA:335,14901049
DA:336,14901049
DA:337,14901049
DA:339,22097
DA:340,7448
DA:342,14649
DA:344,25586
DA:346,2682
DA:347,2682
DA:348,1519
DA:349,1163
DA:350,1163
DA:352,0
DA:354,2682
DA:383,1519
DA:384,1519
DA:385,770
DA:386,749
DA:389,749
DA:391,749
DA:392,1519
DA:410,1163
DA:411,1163
DA:412,771
DA:413,392
DA:416,392
DA:417,1163
DA:419,2682
DA:420,2682
DA:421,1519
DA:422,1163
DA:423,1163
DA:425,0
DA:427,2682
DA:453,1519
DA:454,1519
DA:455,1519
DA:457,51646
DA:458,50127
DA:459,50127
DA:460,20142
DA:461,20142
DA:462,29985
DA:463,50127
DA:466,1519
DA:467,749
DA:469,770
DA:471,1519
DA:507,1163
DA:508,1163
DA:509,1163
DA:510,1163
DA:512,1163
DA:514,1163
DA:515,75203
DA:516,75203
DA:517,15670
DA:518,15670
DA:519,59533
DA:520,75203
DA:521,75203
DA:524,1163
DA:525,392
DA:527,771
DA:529,1163
DA:549,24710
DA:550,24710
DA:551,24710
DA:552,24710
DA:553,24710
DA:554,24710
DA:555,24710
DA:556,24710
DA:557,24710
DA:558,24710
DA:560,24710
DA:561,24710
DA:564,24710
DA:566,1557472
DA:567,1557472
DA:568,1557472
DA:569,1557472
DA:570,1557472
DA:571,1557472
DA:572,1557472
DA:573,1557472
DA:574,1557472
DA:575,1557472
DA:577,24710
DA:578,24710
DA:586,1
DA:587,20
DA:588,19
DA:589,19
DA:591,437
DA:592,437
DA:594,437
DA:595,0
DA:596,0
DA:598,0
DA:603,1
BRF:0
BRH:0
LF:148
LH:141
end_of_record
SF:/Users/mr.wolf/loadingalias/crc-fast-rust/src/lib.rs
FN:279,_RNvMCs3YYFpeUFfny_8crc_fastNtB2_14CrcKeysStorage7get_key
FN:559,_RNvMs2_Cs3YYFpeUFfny_8crc_fastNtB5_6Digest8finalize
FN:444,_RNvXs1_Cs3YYFpeUFfny_8crc_fastNtB5_6DigestNtNtCs5IjPoKK8KE7_6digest6digest9DynDigest11output_size
FN:406,_RNvXs1_Cs3YYFpeUFfny_8crc_fastNtB5_6DigestNtNtCs5IjPoKK8KE7_6digest6digest9DynDigest13finalize_into
FN:694,_RNvCs3YYFpeUFfny_8crc_fast20checksum_with_params
FN:896,_RNvCs3YYFpeUFfny_8crc_fast21get_calculator_target
FN:780,_RNvCs3YYFpeUFfny_8crc_fast25checksum_file_with_digest
FN:766,_RNvCs3YYFpeUFfny_8crc_fast25checksum_file_with_params
FN:854,_RNvCs3YYFpeUFfny_8crc_fast28checksum_combine_with_params
FN:324,_RNvMCs3YYFpeUFfny_8crc_fastNtB2_14CrcKeysStorage16to_keys_array_23
FN:309,_RNvMCs3YYFpeUFfny_8crc_fastNtB2_14CrcKeysStorage18from_keys_fold_256
FN:539,_RNvMs2_Cs3YYFpeUFfny_8crc_fastNtB5_6Digest15new_with_params
FN:574,_RNvMs2_Cs3YYFpeUFfny_8crc_fastNtB5_6Digest5reset
FN:552,_RNvMs2_Cs3YYFpeUFfny_8crc_fastNtB5_6Digest6update
FN:344,_RNvXs0_Cs3YYFpeUFfny_8crc_fastAyj17_INtNtCs85QQFkKrybG_4core3cmp9PartialEqNtB5_14CrcKeysStorageE2eq
FN:423,_RNvXs1_Cs3YYFpeUFfny_8crc_fastNtB5_6DigestNtNtCs5IjPoKK8KE7_6digest6digest9DynDigest19finalize_into_reset
FN:439,_RNvXs1_Cs3YYFpeUFfny_8crc_fastNtB5_6DigestNtNtCs5IjPoKK8KE7_6digest6digest9DynDigest5reset
FN:401,_RNvXs1_Cs3YYFpeUFfny_8crc_fastNtB5_6DigestNtNtCs5IjPoKK8KE7_6digest6digest9DynDigest6update
FN:448,_RNvXs1_Cs3YYFpeUFfny_8crc_fastNtB5_6DigestNtNtCs5IjPoKK8KE7_6digest6digest9DynDigest9box_clone
FN:338,_RNvXs_Cs3YYFpeUFfny_8crc_fastNtB4_14CrcKeysStorageINtNtCs85QQFkKrybG_4core3cmp9PartialEqAyj17_E2eq
FN:724,_RNvCs3YYFpeUFfny_8crc_fast13checksum_file
FN:819,_RNvCs3YYFpeUFfny_8crc_fast16checksum_combine
FN:914,_RNvCs3YYFpeUFfny_8crc_fast21get_calculator_params
FN:949,_RNvCs3YYFpeUFfny_8crc_fast22crc32_iscsi_calculator
FN:988,_RNvCs3YYFpeUFfny_8crc_fast25crc32_iso_hdlc_calculator
FN:666,_RNvCs3YYFpeUFfny_8crc_fast8checksum
FN:316,_RNvMCs3YYFpeUFfny_8crc_fastNtB2_14CrcKeysStorage26from_keys_fold_future_test
FN:597,_RNvMs2_Cs3YYFpeUFfny_8crc_fastNtB5_6Digest10get_amount
FN:565,_RNvMs2_Cs3YYFpeUFfny_8crc_fastNtB5_6Digest14finalize_reset
FN:503,_RNvMs2_Cs3YYFpeUFfny_8crc_fastNtB5_6Digest19new_with_init_state
FN:468,_RNvMs2_Cs3YYFpeUFfny_8crc_fastNtB5_6Digest3new
FN:581,_RNvMs2_Cs3YYFpeUFfny_8crc_fastNtB5_6Digest7combine
FN:618,_RNvMs2_Cs3YYFpeUFfny_8crc_fastNtB5_6Digest9get_state
FN:552,_RNvMs2_CscwG700SpbJM_8crc_fastNtB5_6Digest6update
FN:650,_RNvXs3_CscwG700SpbJM_8crc_fastNtB5_6DigestNtNtCswz7ZwgBZOU_3std2io5Write9write_all
FN:724,_RNvCscwG700SpbJM_8crc_fast13checksum_file
FN:819,_RNvCscwG700SpbJM_8crc_fast16checksum_combine
FN:914,_RNvCscwG700SpbJM_8crc_fast21get_calculator_params
FN:949,_RNvCscwG700SpbJM_8crc_fast22crc32_iscsi_calculator
FN:988,_RNvCscwG700SpbJM_8crc_fast25crc32_iso_hdlc_calculator
FN:666,_RNvCscwG700SpbJM_8crc_fast8checksum
FN:309,_RNvMCscwG700SpbJM_8crc_fastNtB2_14CrcKeysStorage18from_keys_fold_256
FN:316,_RNvMCscwG700SpbJM_8crc_fastNtB2_14CrcKeysStorage26from_keys_fold_future_test
FN:279,_RNvMCscwG700SpbJM_8crc_fastNtB2_14CrcKeysStorage7get_key
FN:300,_RNvMCscwG700SpbJM_8crc_fastNtB2_14CrcKeysStorage9key_count
FN:565,_RNvMs2_CscwG700SpbJM_8crc_fastNtB5_6Digest14finalize_reset
FN:539,_RNvMs2_CscwG700SpbJM_8crc_fastNtB5_6Digest15new_with_params
FN:468,_RNvMs2_CscwG700SpbJM_8crc_fastNtB5_6Digest3new
FN:574,_RNvMs2_CscwG700SpbJM_8crc_fastNtB5_6Digest5reset
FN:581,_RNvMs2_CscwG700SpbJM_8crc_fastNtB5_6Digest7combine
FN:559,_RNvMs2_CscwG700SpbJM_8crc_fastNtB5_6Digest8finalize
FN:1392,_RNvNtCscwG700SpbJM_8crc_fast3lib10check_file
FN:1238,_RNvNtCscwG700SpbJM_8crc_fast3lib11test_length
FN:1185,_RNvNtCscwG700SpbJM_8crc_fast3lib12check_digest
FN:1567,_RNvNtCscwG700SpbJM_8crc_fast3lib24get_custom_crc32_forward
FN:1591,_RNvNtCscwG700SpbJM_8crc_fast3lib24get_custom_crc64_forward
FN:1555,_RNvNtCscwG700SpbJM_8crc_fast3lib26get_custom_crc32_reflected
FN:1579,_RNvNtCscwG700SpbJM_8crc_fast3lib26get_custom_crc64_reflected
FN:1401,_RNvNtCscwG700SpbJM_8crc_fast3libs_11test_writer
FN:1259,_RNvNtCscwG700SpbJM_8crc_fast3libs_12test_combine
FN:1496,_RNvNtCscwG700SpbJM_8crc_fast3libs_15test_ffi_header
FN:1193,_RNvNtCscwG700SpbJM_8crc_fast3libs_16test_1024_length
FN:1420,_RNvNtCscwG700SpbJM_8crc_fast3libs_17test_digest_reset
FN:1329,_RNvNtCscwG700SpbJM_8crc_fast3libs_18test_checksum_file
FN:1229,_RNvNtCscwG700SpbJM_8crc_fast3libs_18test_large_lengths
FN:1018,_RNvNtCscwG700SpbJM_8crc_fast3libs_19test_checksum_check
FN:1216,_RNvNtCscwG700SpbJM_8crc_fast3libs_19test_medium_lengths
FN:1067,_RNvNtCscwG700SpbJM_8crc_fast3libs_22test_get_custom_params
FN:1203,_RNvNtCscwG700SpbJM_8crc_fast3libs_22test_small_all_lengths
FN:1028,_RNvNtCscwG700SpbJM_8crc_fast3libs_23test_checksum_reference
FN:1445,_RNvNtCscwG700SpbJM_8crc_fast3libs_25test_digest_finalize_into
FN:1150,_RNvNtCscwG700SpbJM_8crc_fast3libs_25test_digest_updates_check
FN:1431,_RNvNtCscwG700SpbJM_8crc_fast3libs_26test_digest_finalize_reset
FN:1605,_RNvNtCscwG700SpbJM_8crc_fast3libs_30test_crc_keys_storage_fold_256
FN:1650,_RNvNtCscwG700SpbJM_8crc_fast3libs_30test_crc_params_safe_accessors
FN:1285,_RNvNtCscwG700SpbJM_8crc_fast3libs_31test_combine_with_custom_params
FN:1469,_RNvNtCscwG700SpbJM_8crc_fast3libs_31test_digest_finalize_into_reset
FN:1038,_RNvNtCscwG700SpbJM_8crc_fast3libs_32test_checksum_with_custom_params
FN:1627,_RNvNtCscwG700SpbJM_8crc_fast3libs_33test_crc_keys_storage_future_test
FN:1092,_RNvNtCscwG700SpbJM_8crc_fast3libs_33test_get_calculator_target_format
FN:1706,_RNvNtCscwG700SpbJM_8crc_fast3libs_35test_crc_keys_storage_bounds_safety
FN:1350,_RNvNtCscwG700SpbJM_8crc_fast3libs_37test_checksum_file_with_custom_params
FN:1118,_RNvNtCscwG700SpbJM_8crc_fast3libs_38test_get_calculator_target_consistency
FN:1688,_RNvNtCscwG700SpbJM_8crc_fast3libs_40test_crc_keys_storage_const_constructors
FN:1157,_RNvNtCscwG700SpbJM_8crc_fast3libs_44test_digest_updates_check_with_custom_params
FN:1135,_RNvNtCscwG700SpbJM_8crc_fast3libs_48test_get_calculator_target_uses_cached_detection
FN:444,_RNvXs1_CscwG700SpbJM_8crc_fastNtB5_6DigestNtNtCs5IjPoKK8KE7_6digest6digest9DynDigest11output_size
FN:406,_RNvXs1_CscwG700SpbJM_8crc_fastNtB5_6DigestNtNtCs5IjPoKK8KE7_6digest6digest9DynDigest13finalize_into
FN:423,_RNvXs1_CscwG700SpbJM_8crc_fastNtB5_6DigestNtNtCs5IjPoKK8KE7_6digest6digest9DynDigest19finalize_into_reset
FN:694,_RNvCscwG700SpbJM_8crc_fast20checksum_with_params
FN:896,_RNvCscwG700SpbJM_8crc_fast21get_calculator_target
FN:780,_RNvCscwG700SpbJM_8crc_fast25checksum_file_with_digest
FN:766,_RNvCscwG700SpbJM_8crc_fast25checksum_file_with_params
FN:854,_RNvCscwG700SpbJM_8crc_fast28checksum_combine_with_params
FN:324,_RNvMCscwG700SpbJM_8crc_fastNtB2_14CrcKeysStorage16to_keys_array_23
FN:344,_RNvXs0_CscwG700SpbJM_8crc_fastAyj17_INtNtCs85QQFkKrybG_4core3cmp9PartialEqNtB5_14CrcKeysStorageE2eq
FN:338,_RNvXs_CscwG700SpbJM_8crc_fastNtB4_14CrcKeysStorageINtNtCs85QQFkKrybG_4core3cmp9PartialEqAyj17_E2eq
FN:597,_RNvMs2_CscwG700SpbJM_8crc_fastNtB5_6Digest10get_amount
FN:503,_RNvMs2_CscwG700SpbJM_8crc_fastNtB5_6Digest19new_with_init_state
FN:618,_RNvMs2_CscwG700SpbJM_8crc_fastNtB5_6Digest9get_state
FN:635,_RNCNvXs3_CscwG700SpbJM_8crc_fastNtB7_6DigestNtNtCswz7ZwgBZOU_3std2io5Write14write_vectored0B7_
FN:439,_RNvXs1_CscwG700SpbJM_8crc_fastNtB5_6DigestNtNtCs5IjPoKK8KE7_6digest6digest9DynDigest5reset
FN:401,_RNvXs1_CscwG700SpbJM_8crc_fastNtB5_6DigestNtNtCs5IjPoKK8KE7_6digest6digest9DynDigest6update
FN:448,_RNvXs1_CscwG700SpbJM_8crc_fastNtB5_6DigestNtNtCs5IjPoKK8KE7_6digest6digest9DynDigest9box_clone
FN:632,_RNvXs3_CscwG700SpbJM_8crc_fastNtB5_6DigestNtNtCswz7ZwgBZOU_3std2io5Write14write_vectored
FN:645,_RNvXs3_CscwG700SpbJM_8crc_fastNtB5_6DigestNtNtCswz7ZwgBZOU_3std2io5Write5flush
FN:626,_RNvXs3_CscwG700SpbJM_8crc_fastNtB5_6DigestNtNtCswz7ZwgBZOU_3std2io5Write5write
FN:1507,_RNCNvNtCscwG700SpbJM_8crc_fast3libs_15test_ffi_header0B5_
FN:1534,_RNCNvNtCscwG700SpbJM_8crc_fast3libs_15test_ffi_headers0_0B5_
FN:1537,_RNCNvNtCscwG700SpbJM_8crc_fast3libs_15test_ffi_headers1_0B5_
FN:1543,_RNCNvNtCscwG700SpbJM_8crc_fast3libs_15test_ffi_headers2_0B5_
FN:1546,_RNCNvNtCscwG700SpbJM_8crc_fast3libs_15test_ffi_headers3_0B5_
FN:1529,_RNCNvNtCscwG700SpbJM_8crc_fast3libs_15test_ffi_headers_0B5_
FN:1103,_RNCNvNtCscwG700SpbJM_8crc_fast3libs_33test_get_calculator_target_format0B5_
FN:635,_RNCNvXs3_Cs3YYFpeUFfny_8crc_fastNtB7_6DigestNtNtCswz7ZwgBZOU_3std2io5Write14write_vectored0B7_
FN:300,_RNvMCs3YYFpeUFfny_8crc_fastNtB2_14CrcKeysStorage9key_count
FN:632,_RNvXs3_Cs3YYFpeUFfny_8crc_fastNtB5_6DigestNtNtCswz7ZwgBZOU_3std2io5Write14write_vectored
FN:645,_RNvXs3_Cs3YYFpeUFfny_8crc_fastNtB5_6DigestNtNtCswz7ZwgBZOU_3std2io5Write5flush
FN:626,_RNvXs3_Cs3YYFpeUFfny_8crc_fastNtB5_6DigestNtNtCswz7ZwgBZOU_3std2io5Write5write
FN:650,_RNvXs3_Cs3YYFpeUFfny_8crc_fastNtB5_6DigestNtNtCswz7ZwgBZOU_3std2io5Write9write_all
FNDA:669,_RNvMCs3YYFpeUFfny_8crc_fastNtB2_14CrcKeysStorage7get_key
FNDA:9,_RNvMs2_Cs3YYFpeUFfny_8crc_fastNtB5_6Digest8finalize
FNDA:0,_RNvXs1_Cs3YYFpeUFfny_8crc_fastNtB5_6DigestNtNtCs5IjPoKK8KE7_6digest6digest9DynDigest11output_size
FNDA:0,_RNvXs1_Cs3YYFpeUFfny_8crc_fastNtB5_6DigestNtNtCs5IjPoKK8KE7_6digest6digest9DynDigest13finalize_into
FNDA:2,_RNvCs3YYFpeUFfny_8crc_fast20checksum_with_params
FNDA:1,_RNvCs3YYFpeUFfny_8crc_fast21get_calculator_target
FNDA:0,_RNvCs3YYFpeUFfny_8crc_fast25checksum_file_with_digest
FNDA:0,_RNvCs3YYFpeUFfny_8crc_fast25checksum_file_with_params
FNDA:0,_RNvCs3YYFpeUFfny_8crc_fast28checksum_combine_with_params
FNDA:0,_RNvMCs3YYFpeUFfny_8crc_fastNtB2_14CrcKeysStorage16to_keys_array_23
FNDA:2,_RNvMCs3YYFpeUFfny_8crc_fastNtB2_14CrcKeysStorage18from_keys_fold_256
FNDA:0,_RNvMs2_Cs3YYFpeUFfny_8crc_fastNtB5_6Digest15new_with_params
FNDA:2,_RNvMs2_Cs3YYFpeUFfny_8crc_fastNtB5_6Digest5reset
FNDA:15,_RNvMs2_Cs3YYFpeUFfny_8crc_fastNtB5_6Digest6update
FNDA:0,_RNvXs0_Cs3YYFpeUFfny_8crc_fastAyj17_INtNtCs85QQFkKrybG_4core3cmp9PartialEqNtB5_14CrcKeysStorageE2eq
FNDA:0,_RNvXs1_Cs3YYFpeUFfny_8crc_fastNtB5_6DigestNtNtCs5IjPoKK8KE7_6digest6digest9DynDigest19finalize_into_reset
FNDA:0,_RNvXs1_Cs3YYFpeUFfny_8crc_fastNtB5_6DigestNtNtCs5IjPoKK8KE7_6digest6digest9DynDigest5reset
FNDA:0,_RNvXs1_Cs3YYFpeUFfny_8crc_fastNtB5_6DigestNtNtCs5IjPoKK8KE7_6digest6digest9DynDigest6update
FNDA:0,_RNvXs1_Cs3YYFpeUFfny_8crc_fastNtB5_6DigestNtNtCs5IjPoKK8KE7_6digest6digest9DynDigest9box_clone
FNDA:0,_RNvXs_Cs3YYFpeUFfny_8crc_fastNtB4_14CrcKeysStorageINtNtCs85QQFkKrybG_4core3cmp9PartialEqAyj17_E2eq
FNDA:0,_RNvCs3YYFpeUFfny_8crc_fast13checksum_file
FNDA:2,_RNvCs3YYFpeUFfny_8crc_fast16checksum_combine
FNDA:879299,_RNvCs3YYFpeUFfny_8crc_fast21get_calculator_params
FNDA:879239,_RNvCs3YYFpeUFfny_8crc_fast22crc32_iscsi_calculator
FNDA:37,_RNvCs3YYFpeUFfny_8crc_fast25crc32_iso_hdlc_calculator
FNDA:879290,_RNvCs3YYFpeUFfny_8crc_fast8checksum
FNDA:0,_RNvMCs3YYFpeUFfny_8crc_fastNtB2_14CrcKeysStorage26from_keys_fold_future_test
FNDA:0,_RNvMs2_Cs3YYFpeUFfny_8crc_fastNtB5_6Digest10get_amount
FNDA:0,_RNvMs2_Cs3YYFpeUFfny_8crc_fastNtB5_6Digest14finalize_reset
FNDA:0,_RNvMs2_Cs3YYFpeUFfny_8crc_fastNtB5_6Digest19new_with_init_state
FNDA:7,_RNvMs2_Cs3YYFpeUFfny_8crc_fastNtB5_6Digest3new
FNDA:0,_RNvMs2_Cs3YYFpeUFfny_8crc_fastNtB5_6Digest7combine
FNDA:0,_RNvMs2_Cs3YYFpeUFfny_8crc_fastNtB5_6Digest9get_state
FNDA:240,_RNvMs2_CscwG700SpbJM_8crc_fastNtB5_6Digest6update
FNDA:0,_RNvXs3_CscwG700SpbJM_8crc_fastNtB5_6DigestNtNtCswz7ZwgBZOU_3std2io5Write9write_all
FNDA:0,_RNvCscwG700SpbJM_8crc_fast13checksum_file
FNDA:19,_RNvCscwG700SpbJM_8crc_fast16checksum_combine
FNDA:19757,_RNvCscwG700SpbJM_8crc_fast21get_calculator_params
FNDA:1047,_RNvCscwG700SpbJM_8crc_fast22crc32_iscsi_calculator
FNDA:1047,_RNvCscwG700SpbJM_8crc_fast25crc32_iso_hdlc_calculator
FNDA:19605,_RNvCscwG700SpbJM_8crc_fast8checksum
FNDA:137,_RNvMCscwG700SpbJM_8crc_fastNtB2_14CrcKeysStorage18from_keys_fold_256
FNDA:15,_RNvMCscwG700SpbJM_8crc_fastNtB2_14CrcKeysStorage26from_keys_fold_future_test
FNDA:945249,_RNvMCscwG700SpbJM_8crc_fastNtB2_14CrcKeysStorage7get_key
FNDA:371,_RNvMCscwG700SpbJM_8crc_fastNtB2_14CrcKeysStorage9key_count
FNDA:19,_RNvMs2_CscwG700SpbJM_8crc_fastNtB5_6Digest14finalize_reset
FNDA:4,_RNvMs2_CscwG700SpbJM_8crc_fastNtB5_6Digest15new_with_params
FNDA:133,_RNvMs2_CscwG700SpbJM_8crc_fastNtB5_6Digest3new
FNDA:57,_RNvMs2_CscwG700SpbJM_8crc_fastNtB5_6Digest5reset
FNDA:19,_RNvMs2_CscwG700SpbJM_8crc_fastNtB5_6Digest7combine
FNDA:175,_RNvMs2_CscwG700SpbJM_8crc_fastNtB5_6Digest8finalize
FNDA:0,_RNvNtCscwG700SpbJM_8crc_fast3lib10check_file
FNDA:19513,_RNvNtCscwG700SpbJM_8crc_fast3lib11test_length
FNDA:23,_RNvNtCscwG700SpbJM_8crc_fast3lib12check_digest
FNDA:4,_RNvNtCscwG700SpbJM_8crc_fast3lib24get_custom_crc32_forward
FNDA:4,_RNvNtCscwG700SpbJM_8crc_fast3lib24get_custom_crc64_forward
FNDA:4,_RNvNtCscwG700SpbJM_8crc_fast3lib26get_custom_crc32_reflected
FNDA:4,_RNvNtCscwG700SpbJM_8crc_fast3lib26get_custom_crc64_reflected
FNDA:1,_RNvNtCscwG700SpbJM_8crc_fast3libs_11test_writer
FNDA:1,_RNvNtCscwG700SpbJM_8crc_fast3libs_12test_combine
FNDA:1,_RNvNtCscwG700SpbJM_8crc_fast3libs_15test_ffi_header
FNDA:1,_RNvNtCscwG700SpbJM_8crc_fast3libs_16test_1024_length
FNDA:1,_RNvNtCscwG700SpbJM_8crc_fast3libs_17test_digest_reset
FNDA:1,_RNvNtCscwG700SpbJM_8crc_fast3libs_18test_checksum_file
FNDA:1,_RNvNtCscwG700SpbJM_8crc_fast3libs_18test_large_lengths
FNDA:1,_RNvNtCscwG700SpbJM_8crc_fast3libs_19test_checksum_check
FNDA:1,_RNvNtCscwG700SpbJM_8crc_fast3libs_19test_medium_lengths
FNDA:1,_RNvNtCscwG700SpbJM_8crc_fast3libs_22test_get_custom_params
FNDA:1,_RNvNtCscwG700SpbJM_8crc_fast3libs_22test_small_all_lengths
FNDA:1,_RNvNtCscwG700SpbJM_8crc_fast3libs_23test_checksum_reference
FNDA:1,_RNvNtCscwG700SpbJM_8crc_fast3libs_25test_digest_finalize_into
FNDA:1,_RNvNtCscwG700SpbJM_8crc_fast3libs_25test_digest_updates_check
FNDA:1,_RNvNtCscwG700SpbJM_8crc_fast3libs_26test_digest_finalize_reset
FNDA:1,_RNvNtCscwG700SpbJM_8crc_fast3libs_30test_crc_keys_storage_fold_256
FNDA:1,_RNvNtCscwG700SpbJM_8crc_fast3libs_30test_crc_params_safe_accessors
FNDA:1,_RNvNtCscwG700SpbJM_8crc_fast3libs_31test_combine_with_custom_params
FNDA:1,_RNvNtCscwG700SpbJM_8crc_fast3libs_31test_digest_finalize_into_reset
FNDA:1,_RNvNtCscwG700SpbJM_8crc_fast3libs_32test_checksum_with_custom_params
FNDA:1,_RNvNtCscwG700SpbJM_8crc_fast3libs_33test_crc_keys_storage_future_test
FNDA:1,_RNvNtCscwG700SpbJM_8crc_fast3libs_33test_get_calculator_target_format
FNDA:1,_RNvNtCscwG700SpbJM_8crc_fast3libs_35test_crc_keys_storage_bounds_safety
FNDA:1,_RNvNtCscwG700SpbJM_8crc_fast3libs_37test_checksum_file_with_custom_params
FNDA:1,_RNvNtCscwG700SpbJM_8crc_fast3libs_38test_get_calculator_target_consistency
FNDA:1,_RNvNtCscwG700SpbJM_8crc_fast3libs_40test_crc_keys_storage_const_constructors
FNDA:1,_RNvNtCscwG700SpbJM_8crc_fast3libs_44test_digest_updates_check_with_custom_params
FNDA:1,_RNvNtCscwG700SpbJM_8crc_fast3libs_48test_get_calculator_target_uses_cached_detection
FNDA:114,_RNvXs1_CscwG700SpbJM_8crc_fastNtB5_6DigestNtNtCs5IjPoKK8KE7_6digest6digest9DynDigest11output_size
FNDA:19,_RNvXs1_CscwG700SpbJM_8crc_fastNtB5_6DigestNtNtCs5IjPoKK8KE7_6digest6digest9DynDigest13finalize_into
FNDA:19,_RNvXs1_CscwG700SpbJM_8crc_fastNtB5_6DigestNtNtCs5IjPoKK8KE7_6digest6digest9DynDigest19finalize_into_reset
FNDA:16,_RNvCscwG700SpbJM_8crc_fast20checksum_with_params
FNDA:6,_RNvCscwG700SpbJM_8crc_fast21get_calculator_target
FNDA:0,_RNvCscwG700SpbJM_8crc_fast25checksum_file_with_digest
FNDA:0,_RNvCscwG700SpbJM_8crc_fast25checksum_file_with_params
FNDA:4,_RNvCscwG700SpbJM_8crc_fast28checksum_combine_with_params
FNDA:114,_RNvMCscwG700SpbJM_8crc_fastNtB2_14CrcKeysStorage16to_keys_array_23
FNDA:13,_RNvXs0_CscwG700SpbJM_8crc_fastAyj17_INtNtCs85QQFkKrybG_4core3cmp9PartialEqNtB5_14CrcKeysStorageE2eq
FNDA:42,_RNvXs_CscwG700SpbJM_8crc_fastNtB4_14CrcKeysStorageINtNtCs85QQFkKrybG_4core3cmp9PartialEqAyj17_E2eq
FNDA:0,_RNvMs2_CscwG700SpbJM_8crc_fastNtB5_6Digest10get_amount
FNDA:0,_RNvMs2_CscwG700SpbJM_8crc_fastNtB5_6Digest19new_with_init_state
FNDA:0,_RNvMs2_CscwG700SpbJM_8crc_fastNtB5_6Digest9get_state
FNDA:0,_RNCNvXs3_CscwG700SpbJM_8crc_fastNtB7_6DigestNtNtCswz7ZwgBZOU_3std2io5Write14write_vectored0B7_
FNDA:0,_RNvXs1_CscwG700SpbJM_8crc_fastNtB5_6DigestNtNtCs5IjPoKK8KE7_6digest6digest9DynDigest5reset
FNDA:0,_RNvXs1_CscwG700SpbJM_8crc_fastNtB5_6DigestNtNtCs5IjPoKK8KE7_6digest6digest9DynDigest6update
FNDA:0,_RNvXs1_CscwG700SpbJM_8crc_fastNtB5_6DigestNtNtCs5IjPoKK8KE7_6digest6digest9DynDigest9box_clone
FNDA:0,_RNvXs3_CscwG700SpbJM_8crc_fastNtB5_6DigestNtNtCswz7ZwgBZOU_3std2io5Write14write_vectored
FNDA:0,_RNvXs3_CscwG700SpbJM_8crc_fastNtB5_6DigestNtNtCswz7ZwgBZOU_3std2io5Write5flush
FNDA:0,_RNvXs3_CscwG700SpbJM_8crc_fastNtB5_6DigestNtNtCswz7ZwgBZOU_3std2io5Write5write
FNDA:0,_RNCNvNtCscwG700SpbJM_8crc_fast3libs_15test_ffi_header0B5_
FNDA:0,_RNCNvNtCscwG700SpbJM_8crc_fast3libs_15test_ffi_headers0_0B5_
FNDA:0,_RNCNvNtCscwG700SpbJM_8crc_fast3libs_15test_ffi_headers1_0B5_
FNDA:0,_RNCNvNtCscwG700SpbJM_8crc_fast3libs_15test_ffi_headers2_0B5_
FNDA:0,_RNCNvNtCscwG700SpbJM_8crc_fast3libs_15test_ffi_headers3_0B5_
FNDA:0,_RNCNvNtCscwG700SpbJM_8crc_fast3libs_15test_ffi_headers_0B5_
FNDA:1,_RNCNvNtCscwG700SpbJM_8crc_fast3libs_33test_get_calculator_target_format0B5_
FNDA:0,_RNCNvXs3_Cs3YYFpeUFfny_8crc_fastNtB7_6DigestNtNtCswz7ZwgBZOU_3std2io5Write14write_vectored0B7_
FNDA:0,_RNvMCs3YYFpeUFfny_8crc_fastNtB2_14CrcKeysStorage9key_count
FNDA:0,_RNvXs3_Cs3YYFpeUFfny_8crc_fastNtB5_6DigestNtNtCswz7ZwgBZOU_3std2io5Write14write_vectored
FNDA:0,_RNvXs3_Cs3YYFpeUFfny_8crc_fastNtB5_6DigestNtNtCswz7ZwgBZOU_3std2io5Write5flush
FNDA:0,_RNvXs3_Cs3YYFpeUFfny_8crc_fastNtB5_6DigestNtNtCswz7ZwgBZOU_3std2io5Write5write
FNDA:0,_RNvXs3_Cs3YYFpeUFfny_8crc_fastNtB5_6DigestNtNtCswz7ZwgBZOU_3std2io5Write9write_all
FNF:81
FNH:60
DA:279,945918
DA:280,945918
DA:281,940659
DA:282,940659
DA:283,933633
DA:285,7026
DA:288,5259
DA:289,5259
DA:290,5244
DA:292,15
DA:296,945918
DA:300,371
DA:301,371
DA:302,204
DA:303,167
DA:305,371
DA:309,139
DA:310,139
DA:311,139
DA:316,15
DA:317,15
DA:318,15
DA:324,114
DA:325,114
DA:326,114
DA:327,0
DA:328,0
DA:329,0
DA:330,0
DA:333,114
DA:338,42
DA:339,42
DA:340,42
DA:344,13
DA:345,13
DA:346,13
DA:401,0
DA:402,0
DA:403,0
DA:406,19
DA:407,19
DA:408,0
DA:409,19
DA:411,19
DA:412,19
DA:413,12
DA:415,7
DA:417,19
DA:419,19
DA:420,19
DA:423,19
DA:424,19
DA:425,0
DA:426,19
DA:427,19
DA:428,19
DA:429,19
DA:430,12
DA:432,7
DA:434,19
DA:435,19
DA:436,19
DA:439,0
DA:440,0
DA:441,0
DA:444,114
DA:445,114
DA:446,114
DA:448,0
DA:449,0
DA:450,0
DA:468,140
DA:469,140
DA:471,140
DA:472,140
DA:473,140
DA:474,140
DA:475,140
DA:476,140
DA:477,140
DA:503,0
DA:504,0
DA:506,0
DA:507,0
DA:508,0
DA:509,0
DA:510,0
DA:511,0
DA:512,0
DA:539,4
DA:540,4
DA:542,4
DA:543,4
DA:544,4
DA:545,4
DA:546,4
DA:547,4
DA:548,4
DA:552,255
DA:553,255
DA:554,255
DA:555,255
DA:559,184
DA:560,184
DA:561,184
DA:565,19
DA:566,19
DA:567,19
DA:569,19
DA:570,19
DA:574,59
DA:575,59
DA:576,59
DA:577,59
DA:581,19
DA:582,19
DA:583,19
DA:587,19
DA:588,19
DA:589,19
DA:590,19
DA:591,19
DA:592,19
DA:593,19
DA:597,0
DA:598,0
DA:599,0
DA:618,0
DA:619,0
DA:620,0
DA:626,0
DA:627,0
DA:628,0
DA:629,0
DA:632,0
DA:633,0
DA:634,0
DA:635,0
DA:636,0
DA:637,0
DA:638,0
DA:639,0
DA:641,0
DA:642,0
DA:645,0
DA:646,0
DA:647,0
DA:650,0
DA:651,0
DA:653,0
DA:654,0
DA:666,898895
DA:667,898895
DA:669,898895
DA:670,898895
DA:694,18
DA:695,18
DA:697,18
DA:698,18
DA:724,0
DA:725,0
DA:726,0
DA:727,0
DA:728,0
DA:729,0
DA:730,0
DA:766,0
DA:767,0
DA:768,0
DA:769,0
DA:770,0
DA:771,0
DA:772,0
DA:780,0
DA:781,0
DA:782,0
DA:783,0
DA:784,0
DA:785,0
DA:792,0
DA:794,0
DA:796,0
DA:797,0
DA:798,0
DA:799,0
DA:800,0
DA:803,0
DA:804,0
DA:819,21
DA:820,21
DA:821,21
DA:822,21
DA:823,21
DA:824,21
DA:825,21
DA:827,21
DA:828,21
DA:854,4
DA:855,4
DA:856,4
DA:857,4
DA:858,4
DA:859,4
DA:860,4
DA:861,4
DA:896,7
DA:897,7
DA:898,7
DA:899,7
DA:914,899056
DA:915,899056
DA:916,1039
DA:917,1039
DA:918,1039
DA:919,1043
DA:920,1039
DA:921,1039
DA:923,0
DA:925,880282
DA:926,1078
DA:927,1039
DA:928,1039
DA:929,1041
DA:930,1039
DA:932,0
DA:934,1045
DA:935,1040
DA:936,1040
DA:937,1052
DA:938,1040
DA:939,1040
DA:940,1043
DA:942,899056
DA:949,880286
DA:954,880286
DA:955,880286
DA:957,880286
DA:959,0
DA:979,0
DA:980,880286
DA:988,1084
DA:992,1084
DA:994,1084
DA:996,1084
DA:998,0
DA:1002,0
DA:1003,1084
DA:1018,1
DA:1019,20
DA:1020,19
DA:1021,19
DA:1022,19
DA:1025,1
DA:1028,1
DA:1029,20
DA:1030,19
DA:1031,19
DA:1032,19
DA:1035,1
DA:1038,1
DA:1039,1
DA:1042,1
DA:1043,1
DA:1048,1
DA:1049,1
DA:1054,1
DA:1055,1
DA:1060,1
DA:1061,1
DA:1064,1
DA:1067,1
DA:1068,1
DA:1070,1
DA:1071,1
DA:1075,1
DA:1076,1
DA:1080,1
DA:1081,1
DA:1085,1
DA:1086,1
DA:1089,1
DA:1092,1
DA:1093,1
DA:1096,1
DA:1099,1
DA:1100,1
DA:1101,1
DA:1102,1
DA:1103,1
DA:1104,0
DA:1109,1
DA:1110,1
DA:1111,1
DA:1112,0
DA:1115,1
DA:1118,1
DA:1120,1
DA:1121,1
DA:1122,1
DA:1124,1
DA:1126,0
DA:1128,1
DA:1130,0
DA:1132,1
DA:1135,1
DA:1140,1
DA:1141,1
DA:1143,1
DA:1145,0
DA:1147,1
DA:1150,1
DA:1151,20
DA:1152,19
DA:1153,19
DA:1154,1
DA:1157,1
DA:1158,1
DA:1161,1
DA:1162,1
DA:1163,1
DA:1167,1
DA:1168,1
DA:1169,1
DA:1173,1
DA:1174,1
DA:1175,1
DA:1179,1
DA:1180,1
DA:1181,1
DA:1183,1
DA:1185,23
DA:1186,23
DA:1187,23
DA:1188,23
DA:1189,23
DA:1190,23
DA:1193,1
DA:1194,20
DA:1195,19
DA:1196,19
DA:1197,1
DA:1203,1
DA:1204,20
DA:1206,4864
DA:1207,4845
DA:1208,4845
DA:1210,1
DA:1216,1
DA:1217,20
DA:1219,14630
DA:1220,14611
DA:1221,14611
DA:1223,1
DA:1229,1
DA:1230,20
DA:1232,57
DA:1233,38
DA:1234,38
DA:1236,1
DA:1238,19513
DA:1239,19513
DA:1240,19513
DA:1243,19513
DA:1245,19513
DA:1247,19513
DA:1250,0
DA:1251,0
DA:1256,19513
DA:1259,1
DA:1260,20
DA:1261,19
DA:1262,19
DA:1265,19
DA:1266,19
DA:1269,19
DA:1272,19
DA:1273,19
DA:1275,19
DA:1276,19
DA:1278,19
DA:1280,19
DA:1282,1
DA:1285,1
DA:1286,1
DA:1289,1
DA:1290,1
DA:1291,1
DA:1292,1
DA:1293,1
DA:1298,1
DA:1299,1
DA:1300,1
DA:1301,1
DA:1302,1
DA:1307,1
DA:1308,1
DA:1309,1
DA:1310,1
DA:1311,1
DA:1316,1
DA:1317,1
DA:1318,1
DA:1319,1
DA:1320,1
DA:1323,1
DA:1329,1
DA:1331,1
DA:1332,1
DA:1333,1
DA:1334,1
DA:1335,1
DA:1336,0
DA:1338,0
DA:1339,0
DA:1340,0
DA:1343,0
DA:1344,1
DA:1350,1
DA:1351,1
DA:1354,1
DA:1355,1
DA:1356,1
DA:1357,1
DA:1358,1
DA:1359,0
DA:1362,0
DA:1363,0
DA:1364,0
DA:1365,0
DA:1369,0
DA:1370,0
DA:1371,0
DA:1372,0
DA:1376,0
DA:1377,0
DA:1378,0
DA:1379,0
DA:1383,0
DA:1384,0
DA:1385,0
DA:1386,0
DA:1389,0
DA:1390,1
DA:1392,0
DA:1393,0
DA:1394,0
DA:1395,0
DA:1401,1
DA:1403,1
DA:1404,1
DA:1405,1
DA:1406,1
DA:1407,1
DA:1408,0
DA:1410,0
DA:1411,0
DA:1412,0
DA:1413,0
DA:1414,0
DA:1417,0
DA:1418,1
DA:1420,1
DA:1421,20
DA:1422,19
DA:1423,19
DA:1424,19
DA:1425,19
DA:1426,19
DA:1428,1
DA:1431,1
DA:1432,20
DA:1433,19
DA:1435,19
DA:1436,19
DA:1437,19
DA:1439,19
DA:1440,19
DA:1442,1
DA:1445,1
DA:1446,20
DA:1447,19
DA:1448,19
DA:1450,19
DA:1452,12
DA:1453,12
DA:1454,12
DA:1455,12
DA:1458,7
DA:1459,7
DA:1460,7
DA:1461,7
DA:1463,0
DA:1466,1
DA:1469,1
DA:1470,20
DA:1471,19
DA:1472,19
DA:1474,19
DA:1475,12
DA:1476,7
DA:1477,0
DA:1480,19
DA:1481,19
DA:1482,12
DA:1483,7
DA:1484,0
DA:1486,19
DA:1488,19
DA:1489,19
DA:1491,1
DA:1496,1
DA:1507,1
DA:1509,1
DA:1510,1
DA:1511,1
DA:1512,1
DA:1513,1
DA:1515,1
DA:1516,1
DA:1517,1
DA:1518,1
DA:1519,1
DA:1520,1
DA:1521,1
DA:1522,1
DA:1523,1
DA:1525,1
DA:1527,1
DA:1528,1
DA:1529,1
DA:1530,1
DA:1534,1
DA:1537,1
DA:1538,1
DA:1541,1
DA:1543,1
DA:1545,1
DA:1546,0
DA:1547,0
DA:1548,0
DA:1549,0
DA:1550,1
DA:1552,1
DA:1553,1
DA:1555,4
DA:1556,4
DA:1559,4
DA:1560,4
DA:1561,4
DA:1562,4
DA:1563,4
DA:1565,4
DA:1567,4
DA:1568,4
DA:1571,4
DA:1572,4
DA:1573,4
DA:1574,4
DA:1575,4
DA:1577,4
DA:1579,4
DA:1580,4
DA:1583,4
DA:1584,4
DA:1585,4
DA:1586,4
DA:1587,4
DA:1589,4
DA:1591,4
DA:1592,4
DA:1595,4
DA:1596,4
DA:1597,4
DA:1598,4
DA:1599,4
DA:1601,4
DA:1605,1
DA:1606,1
DA:1607,1
DA:1608,1
DA:1609,1
DA:1612,24
DA:1613,23
DA:1617,1
DA:1618,1
DA:1619,1
DA:1622,1
DA:1623,1
DA:1627,1
DA:1628,1
DA:1629,1
DA:1630,1
DA:1631,1
DA:1632,1
DA:1635,26
DA:1636,25
DA:1640,1
DA:1641,1
DA:1642,1
DA:1645,1
DA:1646,1
DA:1650,1
DA:1652,1
DA:1653,1
DA:1654,1
DA:1655,1
DA:1656,1
DA:1657,1
DA:1658,1
DA:1659,1
DA:1660,1
DA:1661,1
DA:1662,1
DA:1663,1
DA:1664,1
DA:1665,1
DA:1666,1
DA:1669,24
DA:1670,23
DA:1671,23
DA:1675,1
DA:1676,1
DA:1677,1
DA:1679,1
DA:1680,1
DA:1681,1
DA:1684,1
DA:1685,1
DA:1688,1
DA:1698,1
DA:1699,1
DA:1701,1
DA:1702,1
DA:1703,1
DA:1706,1
DA:1707,1
DA:1708,1
DA:1711,1
DA:1712,1
DA:1714,1
DA:1715,1
DA:1718,1
DA:1719,1
DA:1720,1
BRF:0
BRH:0
LF:652
LH:511
end_of_record
SF:/Users/mr.wolf/loadingalias/crc-fast-rust/src/structs.rs
FN:87,_RNvMs1_NtCs3YYFpeUFfny_8crc_fast7structsNtB7_9CrcParams7get_key
FN:52,_RNvMs1_NtCs3YYFpeUFfny_8crc_fast7structsNtB7_9CrcParams3new
FN:37,_RNvXs0_NtCs3YYFpeUFfny_8crc_fast7structsNtB5_10CalculatorNtNtB7_6traits13CrcCalculator9calculate
FN:94,_RNvMs1_NtCscwG700SpbJM_8crc_fast7structsNtB7_9CrcParams15get_key_checked
FN:87,_RNvMs1_NtCscwG700SpbJM_8crc_fast7structsNtB7_9CrcParams7get_key
FN:104,_RNvMs1_NtCscwG700SpbJM_8crc_fast7structsNtB7_9CrcParams9key_count
FN:37,_RNvXs0_NtCscwG700SpbJM_8crc_fast7structsNtB5_10CalculatorNtNtB7_6traits13CrcCalculator9calculate
FN:52,_RNvMs1_NtCscwG700SpbJM_8crc_fast7structsNtB7_9CrcParams3new
FN:94,_RNvMs1_NtCs3YYFpeUFfny_8crc_fast7structsNtB7_9CrcParams15get_key_checked
FN:104,_RNvMs1_NtCs3YYFpeUFfny_8crc_fast7structsNtB7_9CrcParams9key_count
FNDA:669,_RNvMs1_NtCs3YYFpeUFfny_8crc_fast7structsNtB7_9CrcParams7get_key
FNDA:2,_RNvMs1_NtCs3YYFpeUFfny_8crc_fast7structsNtB7_9CrcParams3new
FNDA:31,_RNvXs0_NtCs3YYFpeUFfny_8crc_fast7structsNtB5_10CalculatorNtNtB7_6traits13CrcCalculator9calculate
FNDA:142,_RNvMs1_NtCscwG700SpbJM_8crc_fast7structsNtB7_9CrcParams15get_key_checked
FNDA:935384,_RNvMs1_NtCscwG700SpbJM_8crc_fast7structsNtB7_9CrcParams7get_key
FNDA:17,_RNvMs1_NtCscwG700SpbJM_8crc_fast7structsNtB7_9CrcParams9key_count
FNDA:17767,_RNvXs0_NtCscwG700SpbJM_8crc_fast7structsNtB5_10CalculatorNtNtB7_6traits13CrcCalculator9calculate
FNDA:113,_RNvMs1_NtCscwG700SpbJM_8crc_fast7structsNtB7_9CrcParams3new
FNDA:0,_RNvMs1_NtCs3YYFpeUFfny_8crc_fast7structsNtB7_9CrcParams15get_key_checked
FNDA:0,_RNvMs1_NtCs3YYFpeUFfny_8crc_fast7structsNtB7_9CrcParams9key_count
FNF:5
FNH:5
DA:37,17798
DA:38,17798
DA:39,17798
DA:52,115
DA:53,115
DA:54,115
DA:55,115
DA:56,115
DA:57,115
DA:58,115
DA:59,115
DA:60,115
DA:61,115
DA:62,115
DA:64,115
DA:65,73
DA:66,42
DA:67,0
DA:70,115
DA:71,115
DA:72,115
DA:73,115
DA:74,115
DA:75,115
DA:76,115
DA:77,115
DA:78,115
DA:79,115
DA:80,115
DA:81,115
DA:82,115
DA:87,936053
DA:88,936053
DA:89,936053
DA:94,142
DA:95,142
DA:96,126
DA:98,16
DA:100,142
DA:104,17
DA:105,17
DA:106,17
BRF:0
BRH:0
LF:42
LH:41
end_of_record
SF:/Users/mr.wolf/loadingalias/crc-fast-rust/src/test/enums.rs
FN:17,_RNvMNtNtCscwG700SpbJM_8crc_fast4test5enumsNtB2_16AnyCrcTestConfig10get_params
FN:44,_RNvMNtNtCscwG700SpbJM_8crc_fast4test5enumsNtB2_16AnyCrcTestConfig10get_xorout
FN:36,_RNvMNtNtCscwG700SpbJM_8crc_fast4test5enumsNtB2_16AnyCrcTestConfig13get_algorithm
FN:60,_RNvMNtNtCscwG700SpbJM_8crc_fast4test5enumsNtB2_16AnyCrcTestConfig23checksum_with_reference
FN:40,_RNvMNtNtCscwG700SpbJM_8crc_fast4test5enumsNtB2_16AnyCrcTestConfig8get_init
FN:56,_RNvMNtNtCscwG700SpbJM_8crc_fast4test5enumsNtB2_16AnyCrcTestConfig8get_keys
FN:52,_RNvMNtNtCscwG700SpbJM_8crc_fast4test5enumsNtB2_16AnyCrcTestConfig8get_name
FN:28,_RNvMNtNtCscwG700SpbJM_8crc_fast4test5enumsNtB2_16AnyCrcTestConfig8get_poly
FN:48,_RNvMNtNtCscwG700SpbJM_8crc_fast4test5enumsNtB2_16AnyCrcTestConfig9get_check
FN:32,_RNvMNtNtCscwG700SpbJM_8crc_fast4test5enumsNtB2_16AnyCrcTestConfig9get_refin
FN:24,_RNvMNtNtCscwG700SpbJM_8crc_fast4test5enumsNtB2_16AnyCrcTestConfig9get_width
FN:67,_RINvMNtNtCscwG700SpbJM_8crc_fast4test5enumsNtB3_16AnyCrcTestConfig19with_reference_implppEB7_
FNDA:79401,_RNvMNtNtCscwG700SpbJM_8crc_fast4test5enumsNtB2_16AnyCrcTestConfig10get_params
FNDA:19684,_RNvMNtNtCscwG700SpbJM_8crc_fast4test5enumsNtB2_16AnyCrcTestConfig10get_xorout
FNDA:19665,_RNvMNtNtCscwG700SpbJM_8crc_fast4test5enumsNtB2_16AnyCrcTestConfig13get_algorithm
FNDA:39121,_RNvMNtNtCscwG700SpbJM_8crc_fast4test5enumsNtB2_16AnyCrcTestConfig23checksum_with_reference
FNDA:19684,_RNvMNtNtCscwG700SpbJM_8crc_fast4test5enumsNtB2_16AnyCrcTestConfig8get_init
FNDA:57,_RNvMNtNtCscwG700SpbJM_8crc_fast4test5enumsNtB2_16AnyCrcTestConfig8get_keys
FNDA:76,_RNvMNtNtCscwG700SpbJM_8crc_fast4test5enumsNtB2_16AnyCrcTestConfig8get_name
FNDA:114,_RNvMNtNtCscwG700SpbJM_8crc_fast4test5enumsNtB2_16AnyCrcTestConfig8get_poly
FNDA:247,_RNvMNtNtCscwG700SpbJM_8crc_fast4test5enumsNtB2_16AnyCrcTestConfig9get_check
FNDA:152,_RNvMNtNtCscwG700SpbJM_8crc_fast4test5enumsNtB2_16AnyCrcTestConfig9get_refin
FNDA:114,_RNvMNtNtCscwG700SpbJM_8crc_fast4test5enumsNtB2_16AnyCrcTestConfig9get_width
FNDA:0,_RINvMNtNtCscwG700SpbJM_8crc_fast4test5enumsNtB3_16AnyCrcTestConfig19with_reference_implppEB7_
FNF:12
FNH:11
DA:17,79401
DA:18,79401
DA:19,50148
DA:20,29253
DA:22,79401
DA:24,114
DA:25,114
DA:26,114
DA:28,114
DA:29,114
DA:30,114
DA:32,152
DA:33,152
DA:34,152
DA:36,19665
DA:37,19665
DA:38,19665
DA:40,19684
DA:41,19684
DA:42,19684
DA:44,19684
DA:45,19684
DA:46,19684
DA:48,247
DA:49,247
DA:50,247
DA:52,76
DA:53,76
DA:54,76
DA:56,57
DA:57,57
DA:58,57
DA:60,39121
DA:61,39121
DA:62,24708
DA:63,14413
DA:65,39121
DA:67,0
DA:68,0
DA:69,0
DA:71,0
DA:72,0
DA:73,0
DA:75,0
BRF:0
BRH:0
LF:44
LH:37
end_of_record
SF:/Users/mr.wolf/loadingalias/crc-fast-rust/src/test/future_proof_tests.rs
FN:1520,_RNvNtNtNtCscwG700SpbJM_8crc_fast4test18future_proof_tests9ffi_testss_22test_ffi_memory_safety
FN:1467,_RNvNtNtNtCscwG700SpbJM_8crc_fast4test18future_proof_tests9ffi_testss_26test_ffi_pointer_stability
FN:1340,_RNvNtNtNtCscwG700SpbJM_8crc_fast4test18future_proof_tests9ffi_testss_27test_ffi_conversion_23_keys
FN:1411,_RNvNtNtNtCscwG700SpbJM_8crc_fast4test18future_proof_tests9ffi_testss_27test_ffi_conversion_25_keys
FN:1576,_RNvNtNtNtCscwG700SpbJM_8crc_fast4test18future_proof_tests9ffi_testss_29test_ffi_different_key_counts
FN:1665,_RNvNtNtNtCscwG700SpbJM_8crc_fast4test18future_proof_tests9ffi_testss_35test_ffi_get_custom_params_function
FN:75,_RNvNtNtCscwG700SpbJM_8crc_fast4test18future_proof_testss_31test_crc_params_get_key_checked
FN:10,_RNvNtNtCscwG700SpbJM_8crc_fast4test18future_proof_testss_37test_crc_keys_storage_bounds_checking
FN:162,_RNvNtNtCscwG700SpbJM_8crc_fast4test18future_proof_testss_37test_key_count_returns_correct_values
FN:219,_RNvNtNtCscwG700SpbJM_8crc_fast4test18future_proof_testss_39test_crc_params_get_key_bounds_checking
FN:1215,_RNvNtNtCscwG700SpbJM_8crc_fast4test18future_proof_testss_45test_future_expansion_backwards_compatibility
FN:688,_RNvNtNtCscwG700SpbJM_8crc_fast4test18future_proof_testss_46test_memory_usage_impact_of_enum_based_storage
FN:264,_RNvNtNtCscwG700SpbJM_8crc_fast4test18future_proof_testss_48test_third_party_const_definitions_compatibility
FN:381,_RNvNtNtCscwG700SpbJM_8crc_fast4test18future_proof_testss_50test_existing_key_access_patterns_continue_to_work
FN:774,_RNvNtNtCscwG700SpbJM_8crc_fast4test18future_proof_testss_51test_compiler_optimizations_eliminate_enum_dispatch
FN:882,_RNvNtNtCscwG700SpbJM_8crc_fast4test18future_proof_testss_53test_create_crc_params_using_keys_future_test_variant
FN:1060,_RNvNtNtCscwG700SpbJM_8crc_fast4test18future_proof_testss_53test_expansion_to_larger_key_arrays_works_as_designed
FN:972,_RNvNtNtCscwG700SpbJM_8crc_fast4test18future_proof_testss_54test_code_gracefully_handles_different_key_array_sizes
FN:550,_RNvNtNtCscwG700SpbJM_8crc_fast4test18future_proof_testss_55test_key_access_performance_matches_direct_array_access
FN:474,_RNvNtNtCscwG700SpbJM_8crc_fast4test18future_proof_testss_56test_backwards_compatibility_throughout_migration_phases
FN:639,_RNvNtNtCscwG700SpbJM_8crc_fast4test18future_proof_testss_57test_crc_calculation_performance_before_and_after_changes
FN:1224,_RNvNvNtNtCscwG700SpbJM_8crc_fast4test18future_proof_testss_45test_future_expansion_backwards_compatibility25third_party_key_processor
FN:1005,_RNvNvNtNtCscwG700SpbJM_8crc_fast4test18future_proof_testss_54test_code_gracefully_handles_different_key_array_sizes18process_crc_params
FNDA:1,_RNvNtNtNtCscwG700SpbJM_8crc_fast4test18future_proof_tests9ffi_testss_22test_ffi_memory_safety
FNDA:1,_RNvNtNtNtCscwG700SpbJM_8crc_fast4test18future_proof_tests9ffi_testss_26test_ffi_pointer_stability
FNDA:1,_RNvNtNtNtCscwG700SpbJM_8crc_fast4test18future_proof_tests9ffi_testss_27test_ffi_conversion_23_keys
FNDA:1,_RNvNtNtNtCscwG700SpbJM_8crc_fast4test18future_proof_tests9ffi_testss_27test_ffi_conversion_25_keys
FNDA:1,_RNvNtNtNtCscwG700SpbJM_8crc_fast4test18future_proof_tests9ffi_testss_29test_ffi_different_key_counts
FNDA:1,_RNvNtNtNtCscwG700SpbJM_8crc_fast4test18future_proof_tests9ffi_testss_35test_ffi_get_custom_params_function
FNDA:1,_RNvNtNtCscwG700SpbJM_8crc_fast4test18future_proof_testss_31test_crc_params_get_key_checked
FNDA:1,_RNvNtNtCscwG700SpbJM_8crc_fast4test18future_proof_testss_37test_crc_keys_storage_bounds_checking
FNDA:1,_RNvNtNtCscwG700SpbJM_8crc_fast4test18future_proof_testss_37test_key_count_returns_correct_values
FNDA:1,_RNvNtNtCscwG700SpbJM_8crc_fast4test18future_proof_testss_39test_crc_params_get_key_bounds_checking
FNDA:1,_RNvNtNtCscwG700SpbJM_8crc_fast4test18future_proof_testss_45test_future_expansion_backwards_compatibility
FNDA:1,_RNvNtNtCscwG700SpbJM_8crc_fast4test18future_proof_testss_46test_memory_usage_impact_of_enum_based_storage
FNDA:1,_RNvNtNtCscwG700SpbJM_8crc_fast4test18future_proof_testss_48test_third_party_const_definitions_compatibility
FNDA:1,_RNvNtNtCscwG700SpbJM_8crc_fast4test18future_proof_testss_50test_existing_key_access_patterns_continue_to_work
FNDA:1,_RNvNtNtCscwG700SpbJM_8crc_fast4test18future_proof_testss_51test_compiler_optimizations_eliminate_enum_dispatch
FNDA:1,_RNvNtNtCscwG700SpbJM_8crc_fast4test18future_proof_testss_53test_create_crc_params_using_keys_future_test_variant
FNDA:1,_RNvNtNtCscwG700SpbJM_8crc_fast4test18future_proof_testss_53test_expansion_to_larger_key_arrays_works_as_designed
FNDA:1,_RNvNtNtCscwG700SpbJM_8crc_fast4test18future_proof_testss_54test_code_gracefully_handles_different_key_array_sizes
FNDA:1,_RNvNtNtCscwG700SpbJM_8crc_fast4test18future_proof_testss_55test_key_access_performance_matches_direct_array_access
FNDA:1,_RNvNtNtCscwG700SpbJM_8crc_fast4test18future_proof_testss_56test_backwards_compatibility_throughout_migration_phases
FNDA:1,_RNvNtNtCscwG700SpbJM_8crc_fast4test18future_proof_testss_57test_crc_calculation_performance_before_and_after_changes
FNDA:2,_RNvNvNtNtCscwG700SpbJM_8crc_fast4test18future_proof_testss_45test_future_expansion_backwards_compatibility25third_party_key_processor
FNDA:2,_RNvNvNtNtCscwG700SpbJM_8crc_fast4test18future_proof_testss_54test_code_gracefully_handles_different_key_array_sizes18process_crc_params
FNF:23
FNH:23
DA:10,1
DA:12,1
DA:13,1
DA:16,24
DA:17,23
DA:18,23
DA:20,0
DA:26,1
DA:27,1
DA:29,0
DA:31,1
DA:32,1
DA:34,0
DA:36,1
DA:37,1
DA:39,0
DA:43,1
DA:44,1
DA:47,26
DA:48,25
DA:49,25
DA:51,0
DA:57,1
DA:58,1
DA:60,0
DA:62,1
DA:63,1
DA:65,0
DA:67,1
DA:68,1
DA:70,0
DA:72,1
DA:75,1
DA:77,1
DA:78,1
DA:79,1
DA:80,1
DA:81,1
DA:82,1
DA:83,1
DA:84,1
DA:85,1
DA:86,1
DA:87,1
DA:88,1
DA:89,1
DA:92,24
DA:93,23
DA:94,23
DA:96,0
DA:102,1
DA:103,1
DA:105,0
DA:107,1
DA:108,1
DA:110,0
DA:112,1
DA:113,1
DA:115,0
DA:119,1
DA:120,1
DA:121,1
DA:122,1
DA:123,1
DA:124,1
DA:125,1
DA:126,1
DA:127,1
DA:128,1
DA:129,1
DA:130,1
DA:131,1
DA:134,26
DA:135,25
DA:136,25
DA:138,0
DA:144,1
DA:145,1
DA:147,0
DA:149,1
DA:150,1
DA:152,0
DA:154,1
DA:155,1
DA:157,0
DA:159,1
DA:162,1
DA:164,1
DA:165,1
DA:166,1
DA:167,1
DA:169,0
DA:172,1
DA:173,1
DA:174,1
DA:175,1
DA:176,1
DA:177,1
DA:178,1
DA:179,1
DA:180,1
DA:181,1
DA:182,1
DA:183,1
DA:184,1
DA:185,1
DA:187,0
DA:191,1
DA:192,1
DA:193,1
DA:194,1
DA:196,0
DA:199,1
DA:200,1
DA:201,1
DA:202,1
DA:203,1
DA:204,1
DA:205,1
DA:206,1
DA:207,1
DA:208,1
DA:209,1
DA:210,1
DA:211,1
DA:212,1
DA:214,0
DA:216,1
DA:219,1
DA:221,1
DA:222,1
DA:223,1
DA:224,1
DA:225,1
DA:226,1
DA:227,1
DA:228,1
DA:229,1
DA:230,1
DA:231,1
DA:232,1
DA:233,1
DA:236,24
DA:237,23
DA:238,23
DA:240,0
DA:246,1
DA:247,1
DA:249,0
DA:251,1
DA:252,1
DA:254,0
DA:256,1
DA:257,1
DA:259,0
DA:261,1
DA:264,1
DA:345,1
DA:346,1
DA:349,1
DA:350,1
DA:351,1
DA:353,1
DA:354,1
DA:355,1
DA:358,1
DA:359,1
DA:362,1
DA:363,1
DA:366,1
DA:368,1
DA:369,1
DA:372,1
DA:373,1
DA:376,1
DA:377,1
DA:381,1
DA:384,1
DA:385,1
DA:386,1
DA:387,1
DA:388,1
DA:389,1
DA:390,1
DA:391,1
DA:392,1
DA:393,1
DA:394,1
DA:395,1
DA:396,1
DA:397,1
DA:398,1
DA:399,1
DA:400,1
DA:401,1
DA:402,1
DA:403,1
DA:404,1
DA:405,1
DA:406,1
DA:407,1
DA:408,1
DA:410,1
DA:411,1
DA:412,1
DA:413,1
DA:414,1
DA:415,1
DA:416,1
DA:417,1
DA:418,1
DA:419,1
DA:420,1
DA:421,1
DA:424,24
DA:425,23
DA:426,23
DA:427,23
DA:429,0
DA:435,23
DA:436,23
DA:437,23
DA:438,23
DA:440,0
DA:446,1
DA:447,8
DA:448,7
DA:449,7
DA:450,7
DA:451,7
DA:453,0
DA:456,0
DA:460,1
DA:461,1
DA:463,0
DA:465,1
DA:466,1
DA:468,0
DA:470,1
DA:474,1
DA:478,1
DA:479,1
DA:482,24
DA:483,23
DA:484,23
DA:485,23
DA:486,0
DA:492,1
DA:493,1
DA:494,1
DA:495,1
DA:496,1
DA:497,1
DA:498,1
DA:499,1
DA:500,1
DA:501,1
DA:502,1
DA:503,1
DA:506,24
DA:507,23
DA:508,23
DA:509,23
DA:510,0
DA:513,23
DA:514,23
DA:515,23
DA:516,0
DA:522,1
DA:523,1
DA:524,1
DA:526,0
DA:530,1
DA:533,1
DA:534,1
DA:536,0
DA:538,1
DA:540,0
DA:542,1
DA:544,0
DA:546,1
DA:550,1
DA:557,1
DA:558,1
DA:559,1
DA:560,1
DA:561,1
DA:562,1
DA:563,1
DA:564,1
DA:565,1
DA:566,1
DA:567,1
DA:568,1
DA:569,1
DA:570,1
DA:571,1
DA:572,1
DA:573,1
DA:574,1
DA:575,1
DA:576,1
DA:577,1
DA:578,1
DA:579,1
DA:580,1
DA:581,1
DA:582,1
DA:584,1
DA:585,1
DA:586,1
DA:587,1
DA:588,1
DA:589,1
DA:590,1
DA:591,1
DA:592,1
DA:593,1
DA:594,1
DA:595,1
DA:598,1
DA:599,1
DA:602,1000
DA:603,24000
DA:604,23000
DA:605,23000
DA:609,1
DA:610,1
DA:611,1
DA:612,1000
DA:613,24000
DA:614,23000
DA:615,23000
DA:619,1
DA:622,1
DA:623,1000
DA:624,31000
DA:625,30000
DA:626,30000
DA:627,30000
DA:628,30000
DA:632,1
DA:634,0
DA:636,1
DA:639,1
DA:644,1
DA:645,1
DA:646,1
DA:649,1
DA:650,1
DA:651,1
DA:652,1
DA:653,1
DA:654,1
DA:656,5
DA:658,4
DA:659,4
DA:661,0
DA:665,4
DA:666,4
DA:668,0
DA:672,4
DA:673,4
DA:675,0
DA:679,4
DA:680,4
DA:682,0
DA:685,1
DA:688,1
DA:693,1
DA:694,1
DA:696,1
DA:697,1
DA:700,1
DA:701,1
DA:702,1
DA:703,1
DA:707,1
DA:709,0
DA:713,1
DA:714,1
DA:715,0
DA:717,1
DA:718,1
DA:719,0
DA:723,1
DA:724,1
DA:725,1
DA:726,1
DA:727,1
DA:728,1
DA:729,1
DA:730,1
DA:731,1
DA:732,1
DA:733,1
DA:734,1
DA:736,1
DA:737,1
DA:738,1
DA:739,1
DA:740,1
DA:741,1
DA:742,1
DA:743,1
DA:744,1
DA:745,1
DA:746,1
DA:747,1
DA:749,1
DA:750,1
DA:753,1
DA:754,1
DA:755,0
DA:757,1
DA:758,1
DA:759,0
DA:763,1
DA:764,1
DA:765,0
DA:767,1
DA:768,1
DA:769,0
DA:771,1
DA:774,1
DA:779,1
DA:780,1
DA:781,1
DA:782,1
DA:783,1
DA:784,1
DA:785,1
DA:786,1
DA:787,1
DA:788,1
DA:789,1
DA:790,1
DA:791,1
DA:792,1
DA:793,1
DA:794,1
DA:795,1
DA:796,1
DA:797,1
DA:798,1
DA:799,1
DA:800,1
DA:801,1
DA:802,1
DA:803,1
DA:804,1
DA:805,1
DA:806,1
DA:807,1
DA:808,1
DA:809,1
DA:810,1
DA:811,1
DA:812,1
DA:813,1
DA:814,1
DA:815,1
DA:816,1
DA:817,1
DA:818,1
DA:819,1
DA:820,1
DA:821,1
DA:822,1
DA:823,1
DA:824,1
DA:825,1
DA:826,1
DA:827,1
DA:828,1
DA:829,1
DA:830,1
DA:832,1
DA:833,1
DA:837,1
DA:838,101
DA:839,2400
DA:840,2300
DA:841,2300
DA:844,1
DA:845,101
DA:846,2600
DA:847,2500
DA:848,2500
DA:852,1
DA:854,0
DA:856,1
DA:858,0
DA:862,1
DA:863,1
DA:865,101
DA:866,200
DA:867,200
DA:868,4800
DA:869,4800
DA:870,4800
DA:871,4800
DA:872,4800
DA:873,4800
DA:874,4800
DA:878,1
DA:879,1
DA:882,1
DA:884,1
DA:885,1
DA:886,1
DA:887,1
DA:888,1
DA:889,1
DA:890,1
DA:891,1
DA:892,1
DA:893,1
DA:894,1
DA:895,1
DA:896,1
DA:897,1
DA:898,1
DA:899,1
DA:900,1
DA:901,1
DA:902,1
DA:903,1
DA:904,1
DA:905,1
DA:906,1
DA:907,1
DA:908,1
DA:909,1
DA:910,1
DA:912,1
DA:913,1
DA:914,1
DA:915,1
DA:916,1
DA:917,1
DA:918,1
DA:919,1
DA:920,1
DA:921,1
DA:922,1
DA:923,1
DA:926,1
DA:927,1
DA:929,0
DA:933,26
DA:934,25
DA:935,25
DA:936,25
DA:937,0
DA:940,25
DA:941,25
DA:942,25
DA:943,0
DA:949,1
DA:950,1
DA:952,0
DA:954,1
DA:955,1
DA:957,0
DA:959,1
DA:960,1
DA:962,0
DA:964,1
DA:965,1
DA:967,0
DA:969,1
DA:972,1
DA:975,1
DA:976,1
DA:978,1
DA:979,1
DA:980,1
DA:981,1
DA:982,1
DA:983,1
DA:984,1
DA:985,1
DA:986,1
DA:987,1
DA:988,1
DA:989,1
DA:991,1
DA:992,1
DA:993,1
DA:994,1
DA:995,1
DA:996,1
DA:997,1
DA:998,1
DA:999,1
DA:1000,1
DA:1001,1
DA:1002,1
DA:1005,2
DA:1006,2
DA:1007,2
DA:1008,2
DA:1009,2
DA:1011,0
DA:1013,2
DA:1014,2
DA:1017,1
DA:1018,1
DA:1020,1
DA:1021,1
DA:1023,1
DA:1025,0
DA:1027,1
DA:1029,0
DA:1032,1
DA:1033,1
DA:1036,1
DA:1037,1
DA:1039,0
DA:1041,1
DA:1042,1
DA:1044,0
DA:1047,1
DA:1048,1
DA:1050,0
DA:1052,1
DA:1053,1
DA:1055,0
DA:1057,1
DA:1060,1
DA:1064,1
DA:1065,1
DA:1066,1
DA:1067,1
DA:1068,1
DA:1069,1
DA:1070,1
DA:1071,1
DA:1072,1
DA:1073,1
DA:1074,1
DA:1075,1
DA:1076,1
DA:1077,1
DA:1078,1
DA:1079,1
DA:1080,1
DA:1081,1
DA:1082,1
DA:1083,1
DA:1084,1
DA:1085,1
DA:1086,1
DA:1087,1
DA:1088,1
DA:1089,1
DA:1090,1
DA:1091,1
DA:1092,1
DA:1093,1
DA:1095,1
DA:1096,1
DA:1097,1
DA:1098,1
DA:1099,1
DA:1100,1
DA:1101,1
DA:1102,1
DA:1103,1
DA:1104,1
DA:1105,1
DA:1106,1
DA:1108,1
DA:1109,1
DA:1110,1
DA:1111,1
DA:1112,1
DA:1113,1
DA:1114,1
DA:1115,1
DA:1116,1
DA:1117,1
DA:1118,1
DA:1119,1
DA:1122,24
DA:1123,23
DA:1124,23
DA:1126,0
DA:1129,23
DA:1130,23
DA:1132,0
DA:1138,1
DA:1139,1
DA:1141,0
DA:1143,1
DA:1144,1
DA:1146,0
DA:1150,1
DA:1151,1
DA:1153,0
DA:1155,1
DA:1156,1
DA:1158,0
DA:1162,1
DA:1163,1
DA:1165,0
DA:1167,1
DA:1168,1
DA:1170,0
DA:1174,1
DA:1175,1
DA:1177,0
DA:1179,1
DA:1180,1
DA:1182,0
DA:1186,1
DA:1187,1
DA:1189,0
DA:1191,1
DA:1192,1
DA:1194,0
DA:1197,1
DA:1198,1
DA:1200,0
DA:1202,1
DA:1203,1
DA:1205,0
DA:1207,1
DA:1208,1
DA:1210,0
DA:1212,1
DA:1215,1
DA:1224,2
DA:1225,2
DA:1229,12
DA:1230,10
DA:1231,10
DA:1234,12
DA:1235,10
DA:1236,10
DA:1239,8
DA:1240,6
DA:1241,6
DA:1244,2
DA:1245,2
DA:1247,2
DA:1248,2
DA:1251,1
DA:1252,1
DA:1253,1
DA:1254,1
DA:1255,1
DA:1256,1
DA:1257,1
DA:1258,1
DA:1259,1
DA:1260,1
DA:1261,1
DA:1262,1
DA:1263,1
DA:1266,1
DA:1267,1
DA:1268,1
DA:1269,1
DA:1270,1
DA:1271,1
DA:1272,1
DA:1273,1
DA:1274,1
DA:1275,1
DA:1276,1
DA:1277,1
DA:1278,1
DA:1281,1
DA:1282,1
DA:1285,1
DA:1286,1
DA:1287,1
DA:1288,0
DA:1292,14
DA:1293,13
DA:1294,13
DA:1295,0
DA:1298,13
DA:1299,13
DA:1300,0
DA:1306,1
DA:1307,1
DA:1308,0
DA:1310,1
DA:1311,1
DA:1312,0
DA:1314,1
DA:1315,1
DA:1316,0
DA:1318,1
DA:1319,1
DA:1320,0
DA:1324,1
DA:1326,0
DA:1328,1
DA:1340,1
DA:1342,1
DA:1343,1
DA:1344,1
DA:1345,1
DA:1346,1
DA:1347,1
DA:1348,1
DA:1349,1
DA:1350,1
DA:1351,1
DA:1352,1
DA:1353,1
DA:1354,1
DA:1357,1
DA:1360,1
DA:1361,1
DA:1362,1
DA:1363,0
DA:1365,1
DA:1366,1
DA:1367,1
DA:1368,1
DA:1369,1
DA:1370,1
DA:1371,1
DA:1375,24
DA:1376,23
DA:1377,23
DA:1379,0
DA:1386,1
DA:1389,1
DA:1390,1
DA:1391,1
DA:1392,1
DA:1393,1
DA:1394,1
DA:1395,1
DA:1396,1
DA:1397,1
DA:1400,24
DA:1401,23
DA:1402,23
DA:1403,23
DA:1404,0
DA:1408,1
DA:1411,1
DA:1413,1
DA:1414,1
DA:1415,1
DA:1416,1
DA:1417,1
DA:1418,1
DA:1419,1
DA:1420,1
DA:1421,1
DA:1422,1
DA:1423,1
DA:1424,1
DA:1425,1
DA:1428,1
DA:1431,1
DA:1432,1
DA:1433,1
DA:1434,0
DA:1436,1
DA:1437,1
DA:1441,26
DA:1442,25
DA:1443,25
DA:1445,0
DA:1452,1
DA:1455,1
DA:1456,26
DA:1457,25
DA:1458,25
DA:1459,25
DA:1460,0
DA:1464,1
DA:1467,1
DA:1469,1
DA:1470,1
DA:1471,1
DA:1472,1
DA:1473,1
DA:1474,1
DA:1475,1
DA:1476,1
DA:1477,1
DA:1478,1
DA:1479,1
DA:1480,1
DA:1481,1
DA:1484,1
DA:1485,1
DA:1488,1
DA:1490,0
DA:1492,1
DA:1494,0
DA:1498,1
DA:1499,1
DA:1500,1
DA:1501,1
DA:1502,1
DA:1503,1
DA:1504,1
DA:1505,1
DA:1506,1
DA:1507,1
DA:1508,1
DA:1509,1
DA:1510,1
DA:1512,1
DA:1513,1
DA:1515,0
DA:1517,1
DA:1520,1
DA:1522,1
DA:1523,1
DA:1524,1
DA:1525,1
DA:1526,1
DA:1527,1
DA:1528,1
DA:1529,1
DA:1530,1
DA:1531,1
DA:1532,1
DA:1533,1
DA:1534,1
DA:1536,1
DA:1540,1
DA:1541,1
DA:1544,23
DA:1545,23
DA:1547,0
DA:1553,1
DA:1554,1
DA:1555,1
DA:1557,0
DA:1562,1
DA:1563,1
DA:1565,24
DA:1566,23
DA:1567,23
DA:1569,0
DA:1573,1
DA:1576,1
DA:1580,1
DA:1581,1
DA:1582,1
DA:1583,1
DA:1584,1
DA:1585,1
DA:1586,1
DA:1587,1
DA:1588,1
DA:1589,1
DA:1590,1
DA:1591,1
DA:1592,1
DA:1595,1
DA:1596,1
DA:1597,1
DA:1598,1
DA:1599,1
DA:1600,1
DA:1601,1
DA:1602,1
DA:1603,1
DA:1604,1
DA:1605,1
DA:1606,1
DA:1607,1
DA:1610,1
DA:1611,1
DA:1614,1
DA:1615,1
DA:1620,24
DA:1621,23
DA:1622,23
DA:1624,0
DA:1630,26
DA:1631,25
DA:1632,25
DA:1634,0
DA:1640,2
DA:1641,48
DA:1642,48
DA:1643,48
DA:1649,1
DA:1650,1
DA:1652,1
DA:1653,1
DA:1656,24
DA:1657,23
DA:1659,26
DA:1660,25
DA:1662,1
DA:1665,1
DA:1669,1
DA:1670,1
DA:1671,1
DA:1681,1
DA:1682,1
DA:1683,1
DA:1684,1
DA:1685,1
DA:1686,1
DA:1687,1
DA:1688,1
DA:1689,1
DA:1690,0
DA:1692,1
DA:1696,23
DA:1697,23
DA:1698,23
DA:1699,23
DA:1703,1
DA:1704,1
DA:1705,1
DA:1706,1
DA:1707,1
DA:1708,1
DA:1709,1
DA:1710,1
DA:1711,1
DA:1712,1
BRF:0
BRH:0
LF:1030
LH:927
end_of_record
SF:/Users/mr.wolf/loadingalias/crc-fast-rust/src/test/mod.rs
FN:14,_RNvNtCscwG700SpbJM_8crc_fast4test19create_aligned_data
FNDA:57,_RNvNtCscwG700SpbJM_8crc_fast4test19create_aligned_data
FNF:1
FNH:1
DA:14,57
DA:16,57
DA:19,57
DA:22,57
DA:23,57
DA:26,57
DA:27,57
DA:30,57
DA:31,57
BRF:0
BRH:0
LF:9
LH:9
end_of_record
SF:/Users/mr.wolf/loadingalias/crc-fast-rust/src/traits.rs
FN:45,_RINvYNtNtNtNtCs3YYFpeUFfny_8crc_fast4arch7aarch643aes13Aarch64AesOpsNtNtBb_6traits7ArchOps28process_enhanced_simd_blocksNtNtBb_7structs7Width32EBb_
FN:45,_RINvYNtNtNtNtCs3YYFpeUFfny_8crc_fast4arch7aarch643aes13Aarch64AesOpsNtNtBb_6traits7ArchOps28process_enhanced_simd_blocksNtNtBb_7structs7Width64EBb_
FN:45,_RINvYNtNtNtNtCs3YYFpeUFfny_8crc_fast4arch7aarch648aes_sha317Aarch64AesSha3OpsNtNtBb_6traits7ArchOps28process_enhanced_simd_blocksNtNtBb_7structs7Width32EBb_
FN:45,_RINvYNtNtNtNtCs3YYFpeUFfny_8crc_fast4arch7aarch648aes_sha317Aarch64AesSha3OpsNtNtBb_6traits7ArchOps28process_enhanced_simd_blocksNtNtBb_7structs7Width64EBb_
FN:24,_RNvYpNtNtCscwG700SpbJM_8crc_fast6traits13CrcCalculator6updateB7_
FN:28,_RNvYpNtNtCscwG700SpbJM_8crc_fast6traits13CrcCalculator8checksumB7_
FN:45,_RINvYNtNtNtNtCscwG700SpbJM_8crc_fast4arch7aarch648aes_sha317Aarch64AesSha3OpsNtNtBb_6traits7ArchOps28process_enhanced_simd_blocksNtNtBb_7structs7Width32EBb_
FN:45,_RINvYNtNtNtNtCscwG700SpbJM_8crc_fast4arch7aarch648aes_sha317Aarch64AesSha3OpsNtNtBb_6traits7ArchOps28process_enhanced_simd_blocksNtNtBb_7structs7Width64EBb_
FN:45,_RINvYNtNtNtNtCscwG700SpbJM_8crc_fast4arch7aarch643aes13Aarch64AesOpsNtNtBb_6traits7ArchOps28process_enhanced_simd_blocksNtNtBb_7structs7Width32EBb_
FN:45,_RINvYNtNtNtNtCscwG700SpbJM_8crc_fast4arch7aarch643aes13Aarch64AesOpsNtNtBb_6traits7ArchOps28process_enhanced_simd_blocksNtNtBb_7structs7Width64EBb_
FN:24,_RNvYpNtNtCs3YYFpeUFfny_8crc_fast6traits13CrcCalculator6updateB7_
FN:28,_RNvYpNtNtCs3YYFpeUFfny_8crc_fast6traits13CrcCalculator8checksumB7_
FNDA:0,_RINvYNtNtNtNtCs3YYFpeUFfny_8crc_fast4arch7aarch643aes13Aarch64AesOpsNtNtBb_6traits7ArchOps28process_enhanced_simd_blocksNtNtBb_7structs7Width32EBb_
FNDA:0,_RINvYNtNtNtNtCs3YYFpeUFfny_8crc_fast4arch7aarch643aes13Aarch64AesOpsNtNtBb_6traits7ArchOps28process_enhanced_simd_blocksNtNtBb_7structs7Width64EBb_
FNDA:0,_RINvYNtNtNtNtCs3YYFpeUFfny_8crc_fast4arch7aarch648aes_sha317Aarch64AesSha3OpsNtNtBb_6traits7ArchOps28process_enhanced_simd_blocksNtNtBb_7structs7Width32EBb_
FNDA:1,_RINvYNtNtNtNtCs3YYFpeUFfny_8crc_fast4arch7aarch648aes_sha317Aarch64AesSha3OpsNtNtBb_6traits7ArchOps28process_enhanced_simd_blocksNtNtBb_7structs7Width64EBb_
FNDA:0,_RNvYpNtNtCscwG700SpbJM_8crc_fast6traits13CrcCalculator6updateB7_
FNDA:0,_RNvYpNtNtCscwG700SpbJM_8crc_fast6traits13CrcCalculator8checksumB7_
FNDA:17022,_RINvYNtNtNtNtCscwG700SpbJM_8crc_fast4arch7aarch648aes_sha317Aarch64AesSha3OpsNtNtBb_6traits7ArchOps28process_enhanced_simd_blocksNtNtBb_7structs7Width32EBb_
FNDA:10836,_RINvYNtNtNtNtCscwG700SpbJM_8crc_fast4arch7aarch648aes_sha317Aarch64AesSha3OpsNtNtBb_6traits7ArchOps28process_enhanced_simd_blocksNtNtBb_7structs7Width64EBb_
FNDA:0,_RINvYNtNtNtNtCscwG700SpbJM_8crc_fast4arch7aarch643aes13Aarch64AesOpsNtNtBb_6traits7ArchOps28process_enhanced_simd_blocksNtNtBb_7structs7Width32EBb_
FNDA:0,_RINvYNtNtNtNtCscwG700SpbJM_8crc_fast4arch7aarch643aes13Aarch64AesOpsNtNtBb_6traits7ArchOps28process_enhanced_simd_blocksNtNtBb_7structs7Width64EBb_
FNDA:0,_RNvYpNtNtCs3YYFpeUFfny_8crc_fast6traits13CrcCalculator6updateB7_
FNDA:0,_RNvYpNtNtCs3YYFpeUFfny_8crc_fast6traits13CrcCalculator8checksumB7_
FNF:3
FNH:1
DA:24,0
DA:25,0
DA:26,0
DA:28,0
DA:29,0
DA:30,0
DA:45,27859
DA:46,27859
DA:47,27859
DA:48,27859
DA:49,27859
DA:50,27859
DA:51,27859
DA:52,27859
DA:53,27859
DA:54,27859
DA:58,27859
DA:59,27859
BRF:0
BRH:0
LF:18
LH:12
end_of_record